
All my (AVR) drivers.elf:     file format elf32-avr

Sections:
Idx Name          Size      VMA       LMA       File off  Algn
  0 .text         0000113a  00000000  00000000  00000094  2**1
                  CONTENTS, ALLOC, LOAD, READONLY, CODE
  1 .data         00000052  00800060  0000113a  000011ce  2**0
                  CONTENTS, ALLOC, LOAD, DATA
  2 .bss          0000002c  008000b2  008000b2  00001220  2**0
                  ALLOC
  3 .comment      00000030  00000000  00000000  00001220  2**0
                  CONTENTS, READONLY
  4 .note.gnu.avr.deviceinfo 0000003c  00000000  00000000  00001250  2**2
                  CONTENTS, READONLY
  5 .debug_aranges 00000318  00000000  00000000  0000128c  2**0
                  CONTENTS, READONLY, DEBUGGING
  6 .debug_info   0000371e  00000000  00000000  000015a4  2**0
                  CONTENTS, READONLY, DEBUGGING
  7 .debug_abbrev 0000118f  00000000  00000000  00004cc2  2**0
                  CONTENTS, READONLY, DEBUGGING
  8 .debug_line   00001e95  00000000  00000000  00005e51  2**0
                  CONTENTS, READONLY, DEBUGGING
  9 .debug_frame  00000820  00000000  00000000  00007ce8  2**2
                  CONTENTS, READONLY, DEBUGGING
 10 .debug_str    00000dfb  00000000  00000000  00008508  2**0
                  CONTENTS, READONLY, DEBUGGING
 11 .debug_loc    000026cb  00000000  00000000  00009303  2**0
                  CONTENTS, READONLY, DEBUGGING
 12 .debug_ranges 00000268  00000000  00000000  0000b9ce  2**0
                  CONTENTS, READONLY, DEBUGGING

Disassembly of section .text:

00000000 <__vectors>:
       0:	0c 94 2a 00 	jmp	0x54	; 0x54 <__ctors_end>
       4:	0c 94 02 04 	jmp	0x804	; 0x804 <__vector_1>
       8:	0c 94 2b 04 	jmp	0x856	; 0x856 <__vector_2>
       c:	0c 94 54 04 	jmp	0x8a8	; 0x8a8 <__vector_3>
      10:	0c 94 48 06 	jmp	0xc90	; 0xc90 <__vector_4>
      14:	0c 94 1f 06 	jmp	0xc3e	; 0xc3e <__vector_5>
      18:	0c 94 47 00 	jmp	0x8e	; 0x8e <__bad_interrupt>
      1c:	0c 94 47 00 	jmp	0x8e	; 0x8e <__bad_interrupt>
      20:	0c 94 47 00 	jmp	0x8e	; 0x8e <__bad_interrupt>
      24:	0c 94 47 00 	jmp	0x8e	; 0x8e <__bad_interrupt>
      28:	0c 94 cd 05 	jmp	0xb9a	; 0xb9a <__vector_10>
      2c:	0c 94 a4 05 	jmp	0xb48	; 0xb48 <__vector_11>
      30:	0c 94 47 00 	jmp	0x8e	; 0x8e <__bad_interrupt>
      34:	0c 94 47 00 	jmp	0x8e	; 0x8e <__bad_interrupt>
      38:	0c 94 47 00 	jmp	0x8e	; 0x8e <__bad_interrupt>
      3c:	0c 94 47 00 	jmp	0x8e	; 0x8e <__bad_interrupt>
      40:	0c 94 70 03 	jmp	0x6e0	; 0x6e0 <__vector_16>
      44:	0c 94 47 00 	jmp	0x8e	; 0x8e <__bad_interrupt>
      48:	0c 94 47 00 	jmp	0x8e	; 0x8e <__bad_interrupt>
      4c:	0c 94 47 00 	jmp	0x8e	; 0x8e <__bad_interrupt>
      50:	0c 94 47 00 	jmp	0x8e	; 0x8e <__bad_interrupt>

00000054 <__ctors_end>:
      54:	11 24       	eor	r1, r1
      56:	1f be       	out	0x3f, r1	; 63
      58:	cf e5       	ldi	r28, 0x5F	; 95
      5a:	d8 e0       	ldi	r29, 0x08	; 8
      5c:	de bf       	out	0x3e, r29	; 62
      5e:	cd bf       	out	0x3d, r28	; 61

00000060 <__do_copy_data>:
      60:	10 e0       	ldi	r17, 0x00	; 0
      62:	a0 e6       	ldi	r26, 0x60	; 96
      64:	b0 e0       	ldi	r27, 0x00	; 0
      66:	ea e3       	ldi	r30, 0x3A	; 58
      68:	f1 e1       	ldi	r31, 0x11	; 17
      6a:	02 c0       	rjmp	.+4      	; 0x70 <__do_copy_data+0x10>
      6c:	05 90       	lpm	r0, Z+
      6e:	0d 92       	st	X+, r0
      70:	a2 3b       	cpi	r26, 0xB2	; 178
      72:	b1 07       	cpc	r27, r17
      74:	d9 f7       	brne	.-10     	; 0x6c <__do_copy_data+0xc>

00000076 <__do_clear_bss>:
      76:	20 e0       	ldi	r18, 0x00	; 0
      78:	a2 eb       	ldi	r26, 0xB2	; 178
      7a:	b0 e0       	ldi	r27, 0x00	; 0
      7c:	01 c0       	rjmp	.+2      	; 0x80 <.do_clear_bss_start>

0000007e <.do_clear_bss_loop>:
      7e:	1d 92       	st	X+, r1

00000080 <.do_clear_bss_start>:
      80:	ae 3d       	cpi	r26, 0xDE	; 222
      82:	b2 07       	cpc	r27, r18
      84:	e1 f7       	brne	.-8      	; 0x7e <.do_clear_bss_loop>
      86:	0e 94 3e 03 	call	0x67c	; 0x67c <main>
      8a:	0c 94 9b 08 	jmp	0x1136	; 0x1136 <_exit>

0000008e <__bad_interrupt>:
      8e:	0c 94 00 00 	jmp	0	; 0x0 <__vectors>

00000092 <ISR0>:
	
	
}
void ISR0(void)
{
	Mode = 'B';
      92:	82 e4       	ldi	r24, 0x42	; 66
      94:	80 93 7d 00 	sts	0x007D, r24	; 0x80007d <Mode>
      98:	08 95       	ret

0000009a <TIMER0_CTC_ISR>:
}

void TIMER0_CTC_ISR(void)
{
	//static uint8 counter = 0 ;
	CTC_counter++;
      9a:	80 91 bf 00 	lds	r24, 0x00BF	; 0x8000bf <CTC_counter>
      9e:	90 91 c0 00 	lds	r25, 0x00C0	; 0x8000c0 <CTC_counter+0x1>
      a2:	01 96       	adiw	r24, 0x01	; 1
      a4:	90 93 c0 00 	sts	0x00C0, r25	; 0x8000c0 <CTC_counter+0x1>
      a8:	80 93 bf 00 	sts	0x00BF, r24	; 0x8000bf <CTC_counter>
	// for each second we need 250 ctc
	if (CTC_counter < 1250)
      ac:	80 91 bf 00 	lds	r24, 0x00BF	; 0x8000bf <CTC_counter>
      b0:	90 91 c0 00 	lds	r25, 0x00C0	; 0x8000c0 <CTC_counter+0x1>
      b4:	82 3e       	cpi	r24, 0xE2	; 226
      b6:	94 40       	sbci	r25, 0x04	; 4
      b8:	c8 f5       	brcc	.+114    	; 0x12c <TIMER0_CTC_ISR+0x92>
	{
		if (Mode == 'A') // normal mode
      ba:	80 91 7d 00 	lds	r24, 0x007D	; 0x80007d <Mode>
      be:	81 34       	cpi	r24, 0x41	; 65
      c0:	c9 f4       	brne	.+50     	; 0xf4 <TIMER0_CTC_ISR+0x5a>
		{
			//turn off the pedestrian led s
			LED_OFF(&LED_P_RED);
      c2:	81 e7       	ldi	r24, 0x71	; 113
      c4:	90 e0       	ldi	r25, 0x00	; 0
      c6:	0e 94 9b 07 	call	0xf36	; 0xf36 <LED_OFF>
			LED_OFF(&LED_P_YELLOW);
      ca:	8e e6       	ldi	r24, 0x6E	; 110
      cc:	90 e0       	ldi	r25, 0x00	; 0
      ce:	0e 94 9b 07 	call	0xf36	; 0xf36 <LED_OFF>
			LED_OFF(&LED_P_GREEN);
      d2:	8b e6       	ldi	r24, 0x6B	; 107
      d4:	90 e0       	ldi	r25, 0x00	; 0
      d6:	0e 94 9b 07 	call	0xf36	; 0xf36 <LED_OFF>
			//turn on cars green led
			LED_OFF(&LED_C_RED);
      da:	8a e7       	ldi	r24, 0x7A	; 122
      dc:	90 e0       	ldi	r25, 0x00	; 0
      de:	0e 94 9b 07 	call	0xf36	; 0xf36 <LED_OFF>
			LED_OFF(&LED_C_YELLOW);
      e2:	87 e7       	ldi	r24, 0x77	; 119
      e4:	90 e0       	ldi	r25, 0x00	; 0
      e6:	0e 94 9b 07 	call	0xf36	; 0xf36 <LED_OFF>
			LED_ON(&LED_C_GREEN);
      ea:	84 e7       	ldi	r24, 0x74	; 116
      ec:	90 e0       	ldi	r25, 0x00	; 0
      ee:	0e 94 80 07 	call	0xf00	; 0xf00 <LED_ON>
      f2:	08 95       	ret
		}
		else if (Mode == 'B') //pedestrian mode
      f4:	82 34       	cpi	r24, 0x42	; 66
      f6:	09 f0       	breq	.+2      	; 0xfa <TIMER0_CTC_ISR+0x60>
      f8:	a6 c1       	rjmp	.+844    	; 0x446 <__EEPROM_REGION_LENGTH__+0x46>
		{
			//turn on cars green led
			LED_OFF(&LED_C_RED);
      fa:	8a e7       	ldi	r24, 0x7A	; 122
      fc:	90 e0       	ldi	r25, 0x00	; 0
      fe:	0e 94 9b 07 	call	0xf36	; 0xf36 <LED_OFF>
			LED_OFF(&LED_C_YELLOW);
     102:	87 e7       	ldi	r24, 0x77	; 119
     104:	90 e0       	ldi	r25, 0x00	; 0
     106:	0e 94 9b 07 	call	0xf36	; 0xf36 <LED_OFF>
			LED_ON(&LED_C_GREEN);
     10a:	84 e7       	ldi	r24, 0x74	; 116
     10c:	90 e0       	ldi	r25, 0x00	; 0
     10e:	0e 94 80 07 	call	0xf00	; 0xf00 <LED_ON>
			//turn on the pedestrian red led 
			LED_ON(&LED_P_RED);
     112:	81 e7       	ldi	r24, 0x71	; 113
     114:	90 e0       	ldi	r25, 0x00	; 0
     116:	0e 94 80 07 	call	0xf00	; 0xf00 <LED_ON>
			LED_OFF(&LED_P_YELLOW);
     11a:	8e e6       	ldi	r24, 0x6E	; 110
     11c:	90 e0       	ldi	r25, 0x00	; 0
     11e:	0e 94 9b 07 	call	0xf36	; 0xf36 <LED_OFF>
			LED_OFF(&LED_P_GREEN);
     122:	8b e6       	ldi	r24, 0x6B	; 107
     124:	90 e0       	ldi	r25, 0x00	; 0
     126:	0e 94 9b 07 	call	0xf36	; 0xf36 <LED_OFF>
     12a:	08 95       	ret
			
			
		}
		
	}
	else if (CTC_counter == 1250)
     12c:	80 91 bf 00 	lds	r24, 0x00BF	; 0x8000bf <CTC_counter>
     130:	90 91 c0 00 	lds	r25, 0x00C0	; 0x8000c0 <CTC_counter+0x1>
     134:	82 3e       	cpi	r24, 0xE2	; 226
     136:	94 40       	sbci	r25, 0x04	; 4
     138:	c9 f5       	brne	.+114    	; 0x1ac <TIMER0_CTC_ISR+0x112>
	{
		if (Mode == 'A') // normal mode
     13a:	80 91 7d 00 	lds	r24, 0x007D	; 0x80007d <Mode>
     13e:	81 34       	cpi	r24, 0x41	; 65
     140:	c9 f4       	brne	.+50     	; 0x174 <TIMER0_CTC_ISR+0xda>
		{
			//turn off the pedestrian led s
			LED_OFF(&LED_P_RED);
     142:	81 e7       	ldi	r24, 0x71	; 113
     144:	90 e0       	ldi	r25, 0x00	; 0
     146:	0e 94 9b 07 	call	0xf36	; 0xf36 <LED_OFF>
			LED_OFF(&LED_P_YELLOW);
     14a:	8e e6       	ldi	r24, 0x6E	; 110
     14c:	90 e0       	ldi	r25, 0x00	; 0
     14e:	0e 94 9b 07 	call	0xf36	; 0xf36 <LED_OFF>
			LED_OFF(&LED_P_GREEN);
     152:	8b e6       	ldi	r24, 0x6B	; 107
     154:	90 e0       	ldi	r25, 0x00	; 0
     156:	0e 94 9b 07 	call	0xf36	; 0xf36 <LED_OFF>
			//turn on cars green led & yellow
			LED_OFF(&LED_C_RED);
     15a:	8a e7       	ldi	r24, 0x7A	; 122
     15c:	90 e0       	ldi	r25, 0x00	; 0
     15e:	0e 94 9b 07 	call	0xf36	; 0xf36 <LED_OFF>
			LED_ON(&LED_C_YELLOW);
     162:	87 e7       	ldi	r24, 0x77	; 119
     164:	90 e0       	ldi	r25, 0x00	; 0
     166:	0e 94 80 07 	call	0xf00	; 0xf00 <LED_ON>
			LED_ON(&LED_C_GREEN);
     16a:	84 e7       	ldi	r24, 0x74	; 116
     16c:	90 e0       	ldi	r25, 0x00	; 0
     16e:	0e 94 80 07 	call	0xf00	; 0xf00 <LED_ON>
     172:	08 95       	ret
		}
		else if (Mode == 'B') //pedestrian mode
     174:	82 34       	cpi	r24, 0x42	; 66
     176:	09 f0       	breq	.+2      	; 0x17a <TIMER0_CTC_ISR+0xe0>
     178:	66 c1       	rjmp	.+716    	; 0x446 <__EEPROM_REGION_LENGTH__+0x46>
		{
		
			LED_ON(&LED_P_RED);
     17a:	81 e7       	ldi	r24, 0x71	; 113
     17c:	90 e0       	ldi	r25, 0x00	; 0
     17e:	0e 94 80 07 	call	0xf00	; 0xf00 <LED_ON>
			LED_ON(&LED_P_YELLOW);
     182:	8e e6       	ldi	r24, 0x6E	; 110
     184:	90 e0       	ldi	r25, 0x00	; 0
     186:	0e 94 80 07 	call	0xf00	; 0xf00 <LED_ON>
			LED_OFF(&LED_P_GREEN);
     18a:	8b e6       	ldi	r24, 0x6B	; 107
     18c:	90 e0       	ldi	r25, 0x00	; 0
     18e:	0e 94 9b 07 	call	0xf36	; 0xf36 <LED_OFF>
			//turn on cars green led & yellow
			LED_OFF(&LED_C_RED);
     192:	8a e7       	ldi	r24, 0x7A	; 122
     194:	90 e0       	ldi	r25, 0x00	; 0
     196:	0e 94 9b 07 	call	0xf36	; 0xf36 <LED_OFF>
			LED_ON(&LED_C_YELLOW);
     19a:	87 e7       	ldi	r24, 0x77	; 119
     19c:	90 e0       	ldi	r25, 0x00	; 0
     19e:	0e 94 80 07 	call	0xf00	; 0xf00 <LED_ON>
			LED_ON(&LED_C_GREEN);
     1a2:	84 e7       	ldi	r24, 0x74	; 116
     1a4:	90 e0       	ldi	r25, 0x00	; 0
     1a6:	0e 94 80 07 	call	0xf00	; 0xf00 <LED_ON>
     1aa:	08 95       	ret
			
		}
	}
	else if (CTC_counter == 1500)
     1ac:	80 91 bf 00 	lds	r24, 0x00BF	; 0x8000bf <CTC_counter>
     1b0:	90 91 c0 00 	lds	r25, 0x00C0	; 0x8000c0 <CTC_counter+0x1>
     1b4:	8c 3d       	cpi	r24, 0xDC	; 220
     1b6:	95 40       	sbci	r25, 0x05	; 5
     1b8:	c9 f5       	brne	.+114    	; 0x22c <TIMER0_CTC_ISR+0x192>
	{
		if (Mode == 'A') // normal mode
     1ba:	80 91 7d 00 	lds	r24, 0x007D	; 0x80007d <Mode>
     1be:	81 34       	cpi	r24, 0x41	; 65
     1c0:	c9 f4       	brne	.+50     	; 0x1f4 <TIMER0_CTC_ISR+0x15a>
		{
			//turn off the pedestrian led s
			LED_OFF(&LED_P_RED);
     1c2:	81 e7       	ldi	r24, 0x71	; 113
     1c4:	90 e0       	ldi	r25, 0x00	; 0
     1c6:	0e 94 9b 07 	call	0xf36	; 0xf36 <LED_OFF>
			LED_OFF(&LED_P_YELLOW);
     1ca:	8e e6       	ldi	r24, 0x6E	; 110
     1cc:	90 e0       	ldi	r25, 0x00	; 0
     1ce:	0e 94 9b 07 	call	0xf36	; 0xf36 <LED_OFF>
			LED_OFF(&LED_P_GREEN);
     1d2:	8b e6       	ldi	r24, 0x6B	; 107
     1d4:	90 e0       	ldi	r25, 0x00	; 0
     1d6:	0e 94 9b 07 	call	0xf36	; 0xf36 <LED_OFF>
			//turn on cars green led
			LED_OFF(&LED_C_RED);
     1da:	8a e7       	ldi	r24, 0x7A	; 122
     1dc:	90 e0       	ldi	r25, 0x00	; 0
     1de:	0e 94 9b 07 	call	0xf36	; 0xf36 <LED_OFF>
			LED_OFF(&LED_C_YELLOW);
     1e2:	87 e7       	ldi	r24, 0x77	; 119
     1e4:	90 e0       	ldi	r25, 0x00	; 0
     1e6:	0e 94 9b 07 	call	0xf36	; 0xf36 <LED_OFF>
			LED_ON(&LED_C_GREEN);
     1ea:	84 e7       	ldi	r24, 0x74	; 116
     1ec:	90 e0       	ldi	r25, 0x00	; 0
     1ee:	0e 94 80 07 	call	0xf00	; 0xf00 <LED_ON>
     1f2:	08 95       	ret
		}
		else if (Mode == 'B') //pedestrian mode
     1f4:	82 34       	cpi	r24, 0x42	; 66
     1f6:	09 f0       	breq	.+2      	; 0x1fa <TIMER0_CTC_ISR+0x160>
     1f8:	26 c1       	rjmp	.+588    	; 0x446 <__EEPROM_REGION_LENGTH__+0x46>
		{
			
			LED_ON(&LED_P_RED);
     1fa:	81 e7       	ldi	r24, 0x71	; 113
     1fc:	90 e0       	ldi	r25, 0x00	; 0
     1fe:	0e 94 80 07 	call	0xf00	; 0xf00 <LED_ON>
			LED_OFF(&LED_P_YELLOW);
     202:	8e e6       	ldi	r24, 0x6E	; 110
     204:	90 e0       	ldi	r25, 0x00	; 0
     206:	0e 94 9b 07 	call	0xf36	; 0xf36 <LED_OFF>
			LED_OFF(&LED_P_GREEN);
     20a:	8b e6       	ldi	r24, 0x6B	; 107
     20c:	90 e0       	ldi	r25, 0x00	; 0
     20e:	0e 94 9b 07 	call	0xf36	; 0xf36 <LED_OFF>
			//turn on cars green led
			LED_OFF(&LED_C_RED);
     212:	8a e7       	ldi	r24, 0x7A	; 122
     214:	90 e0       	ldi	r25, 0x00	; 0
     216:	0e 94 9b 07 	call	0xf36	; 0xf36 <LED_OFF>
			LED_OFF(&LED_C_YELLOW);
     21a:	87 e7       	ldi	r24, 0x77	; 119
     21c:	90 e0       	ldi	r25, 0x00	; 0
     21e:	0e 94 9b 07 	call	0xf36	; 0xf36 <LED_OFF>
			LED_ON(&LED_C_GREEN);
     222:	84 e7       	ldi	r24, 0x74	; 116
     224:	90 e0       	ldi	r25, 0x00	; 0
     226:	0e 94 80 07 	call	0xf00	; 0xf00 <LED_ON>
     22a:	08 95       	ret
			
		}
	}
	else if (CTC_counter == 1750)
     22c:	80 91 bf 00 	lds	r24, 0x00BF	; 0x8000bf <CTC_counter>
     230:	90 91 c0 00 	lds	r25, 0x00C0	; 0x8000c0 <CTC_counter+0x1>
     234:	86 3d       	cpi	r24, 0xD6	; 214
     236:	96 40       	sbci	r25, 0x06	; 6
     238:	c9 f5       	brne	.+114    	; 0x2ac <TIMER0_CTC_ISR+0x212>
	{
		if (Mode == 'A') // normal mode
     23a:	80 91 7d 00 	lds	r24, 0x007D	; 0x80007d <Mode>
     23e:	81 34       	cpi	r24, 0x41	; 65
     240:	c9 f4       	brne	.+50     	; 0x274 <TIMER0_CTC_ISR+0x1da>
		{
			//turn off the pedestrian led s
			LED_OFF(&LED_P_RED);
     242:	81 e7       	ldi	r24, 0x71	; 113
     244:	90 e0       	ldi	r25, 0x00	; 0
     246:	0e 94 9b 07 	call	0xf36	; 0xf36 <LED_OFF>
			LED_OFF(&LED_P_YELLOW);
     24a:	8e e6       	ldi	r24, 0x6E	; 110
     24c:	90 e0       	ldi	r25, 0x00	; 0
     24e:	0e 94 9b 07 	call	0xf36	; 0xf36 <LED_OFF>
			LED_OFF(&LED_P_GREEN);
     252:	8b e6       	ldi	r24, 0x6B	; 107
     254:	90 e0       	ldi	r25, 0x00	; 0
     256:	0e 94 9b 07 	call	0xf36	; 0xf36 <LED_OFF>
			//turn on cars green led & yellow
			LED_OFF(&LED_C_RED);
     25a:	8a e7       	ldi	r24, 0x7A	; 122
     25c:	90 e0       	ldi	r25, 0x00	; 0
     25e:	0e 94 9b 07 	call	0xf36	; 0xf36 <LED_OFF>
			LED_ON(&LED_C_YELLOW);
     262:	87 e7       	ldi	r24, 0x77	; 119
     264:	90 e0       	ldi	r25, 0x00	; 0
     266:	0e 94 80 07 	call	0xf00	; 0xf00 <LED_ON>
			LED_ON(&LED_C_GREEN);
     26a:	84 e7       	ldi	r24, 0x74	; 116
     26c:	90 e0       	ldi	r25, 0x00	; 0
     26e:	0e 94 80 07 	call	0xf00	; 0xf00 <LED_ON>
     272:	08 95       	ret
		}
		else if (Mode == 'B') //pedestrian mode
     274:	82 34       	cpi	r24, 0x42	; 66
     276:	09 f0       	breq	.+2      	; 0x27a <TIMER0_CTC_ISR+0x1e0>
     278:	e6 c0       	rjmp	.+460    	; 0x446 <__EEPROM_REGION_LENGTH__+0x46>
		{
			
			LED_ON(&LED_P_RED);
     27a:	81 e7       	ldi	r24, 0x71	; 113
     27c:	90 e0       	ldi	r25, 0x00	; 0
     27e:	0e 94 80 07 	call	0xf00	; 0xf00 <LED_ON>
			LED_ON(&LED_P_YELLOW);
     282:	8e e6       	ldi	r24, 0x6E	; 110
     284:	90 e0       	ldi	r25, 0x00	; 0
     286:	0e 94 80 07 	call	0xf00	; 0xf00 <LED_ON>
			LED_OFF(&LED_P_GREEN);
     28a:	8b e6       	ldi	r24, 0x6B	; 107
     28c:	90 e0       	ldi	r25, 0x00	; 0
     28e:	0e 94 9b 07 	call	0xf36	; 0xf36 <LED_OFF>
			//turn on cars green led & yellow
			LED_OFF(&LED_C_RED);
     292:	8a e7       	ldi	r24, 0x7A	; 122
     294:	90 e0       	ldi	r25, 0x00	; 0
     296:	0e 94 9b 07 	call	0xf36	; 0xf36 <LED_OFF>
			LED_ON(&LED_C_YELLOW);
     29a:	87 e7       	ldi	r24, 0x77	; 119
     29c:	90 e0       	ldi	r25, 0x00	; 0
     29e:	0e 94 80 07 	call	0xf00	; 0xf00 <LED_ON>
			LED_ON(&LED_C_GREEN);
     2a2:	84 e7       	ldi	r24, 0x74	; 116
     2a4:	90 e0       	ldi	r25, 0x00	; 0
     2a6:	0e 94 80 07 	call	0xf00	; 0xf00 <LED_ON>
     2aa:	08 95       	ret
			
		}
	}
	else if (CTC_counter == 2000)
     2ac:	80 91 bf 00 	lds	r24, 0x00BF	; 0x8000bf <CTC_counter>
     2b0:	90 91 c0 00 	lds	r25, 0x00C0	; 0x8000c0 <CTC_counter+0x1>
     2b4:	80 3d       	cpi	r24, 0xD0	; 208
     2b6:	97 40       	sbci	r25, 0x07	; 7
     2b8:	c9 f5       	brne	.+114    	; 0x32c <TIMER0_CTC_ISR+0x292>
	{
		if (Mode == 'A') // normal mode
     2ba:	80 91 7d 00 	lds	r24, 0x007D	; 0x80007d <Mode>
     2be:	81 34       	cpi	r24, 0x41	; 65
     2c0:	c9 f4       	brne	.+50     	; 0x2f4 <TIMER0_CTC_ISR+0x25a>
		{
			//turn off the pedestrian led s
			LED_OFF(&LED_P_RED);
     2c2:	81 e7       	ldi	r24, 0x71	; 113
     2c4:	90 e0       	ldi	r25, 0x00	; 0
     2c6:	0e 94 9b 07 	call	0xf36	; 0xf36 <LED_OFF>
			LED_OFF(&LED_P_YELLOW);
     2ca:	8e e6       	ldi	r24, 0x6E	; 110
     2cc:	90 e0       	ldi	r25, 0x00	; 0
     2ce:	0e 94 9b 07 	call	0xf36	; 0xf36 <LED_OFF>
			LED_OFF(&LED_P_GREEN);
     2d2:	8b e6       	ldi	r24, 0x6B	; 107
     2d4:	90 e0       	ldi	r25, 0x00	; 0
     2d6:	0e 94 9b 07 	call	0xf36	; 0xf36 <LED_OFF>
			//turn on cars green led
			LED_OFF(&LED_C_RED);
     2da:	8a e7       	ldi	r24, 0x7A	; 122
     2dc:	90 e0       	ldi	r25, 0x00	; 0
     2de:	0e 94 9b 07 	call	0xf36	; 0xf36 <LED_OFF>
			LED_OFF(&LED_C_YELLOW);
     2e2:	87 e7       	ldi	r24, 0x77	; 119
     2e4:	90 e0       	ldi	r25, 0x00	; 0
     2e6:	0e 94 9b 07 	call	0xf36	; 0xf36 <LED_OFF>
			LED_ON(&LED_C_GREEN);
     2ea:	84 e7       	ldi	r24, 0x74	; 116
     2ec:	90 e0       	ldi	r25, 0x00	; 0
     2ee:	0e 94 80 07 	call	0xf00	; 0xf00 <LED_ON>
     2f2:	08 95       	ret
		}
		else if (Mode == 'B') //pedestrian mode
     2f4:	82 34       	cpi	r24, 0x42	; 66
     2f6:	09 f0       	breq	.+2      	; 0x2fa <TIMER0_CTC_ISR+0x260>
     2f8:	a6 c0       	rjmp	.+332    	; 0x446 <__EEPROM_REGION_LENGTH__+0x46>
		{
			
			LED_ON(&LED_P_RED);
     2fa:	81 e7       	ldi	r24, 0x71	; 113
     2fc:	90 e0       	ldi	r25, 0x00	; 0
     2fe:	0e 94 80 07 	call	0xf00	; 0xf00 <LED_ON>
			LED_OFF(&LED_P_YELLOW);
     302:	8e e6       	ldi	r24, 0x6E	; 110
     304:	90 e0       	ldi	r25, 0x00	; 0
     306:	0e 94 9b 07 	call	0xf36	; 0xf36 <LED_OFF>
			LED_OFF(&LED_P_GREEN);
     30a:	8b e6       	ldi	r24, 0x6B	; 107
     30c:	90 e0       	ldi	r25, 0x00	; 0
     30e:	0e 94 9b 07 	call	0xf36	; 0xf36 <LED_OFF>
			//turn on cars green led
			LED_OFF(&LED_C_RED);
     312:	8a e7       	ldi	r24, 0x7A	; 122
     314:	90 e0       	ldi	r25, 0x00	; 0
     316:	0e 94 9b 07 	call	0xf36	; 0xf36 <LED_OFF>
			LED_OFF(&LED_C_YELLOW);
     31a:	87 e7       	ldi	r24, 0x77	; 119
     31c:	90 e0       	ldi	r25, 0x00	; 0
     31e:	0e 94 9b 07 	call	0xf36	; 0xf36 <LED_OFF>
			LED_ON(&LED_C_GREEN);
     322:	84 e7       	ldi	r24, 0x74	; 116
     324:	90 e0       	ldi	r25, 0x00	; 0
     326:	0e 94 80 07 	call	0xf00	; 0xf00 <LED_ON>
     32a:	08 95       	ret
			
		}
	}
	else if (CTC_counter == 2250)
     32c:	80 91 bf 00 	lds	r24, 0x00BF	; 0x8000bf <CTC_counter>
     330:	90 91 c0 00 	lds	r25, 0x00C0	; 0x8000c0 <CTC_counter+0x1>
     334:	8a 3c       	cpi	r24, 0xCA	; 202
     336:	98 40       	sbci	r25, 0x08	; 8
     338:	c9 f5       	brne	.+114    	; 0x3ac <TIMER0_CTC_ISR+0x312>
	{
		if (Mode == 'A') // normal mode
     33a:	80 91 7d 00 	lds	r24, 0x007D	; 0x80007d <Mode>
     33e:	81 34       	cpi	r24, 0x41	; 65
     340:	c9 f4       	brne	.+50     	; 0x374 <TIMER0_CTC_ISR+0x2da>
		{
			//turn off the pedestrian led s
			LED_OFF(&LED_P_RED);
     342:	81 e7       	ldi	r24, 0x71	; 113
     344:	90 e0       	ldi	r25, 0x00	; 0
     346:	0e 94 9b 07 	call	0xf36	; 0xf36 <LED_OFF>
			LED_OFF(&LED_P_YELLOW);
     34a:	8e e6       	ldi	r24, 0x6E	; 110
     34c:	90 e0       	ldi	r25, 0x00	; 0
     34e:	0e 94 9b 07 	call	0xf36	; 0xf36 <LED_OFF>
			LED_OFF(&LED_P_GREEN);
     352:	8b e6       	ldi	r24, 0x6B	; 107
     354:	90 e0       	ldi	r25, 0x00	; 0
     356:	0e 94 9b 07 	call	0xf36	; 0xf36 <LED_OFF>
			//turn on cars green led & yellow
			LED_OFF(&LED_C_RED);
     35a:	8a e7       	ldi	r24, 0x7A	; 122
     35c:	90 e0       	ldi	r25, 0x00	; 0
     35e:	0e 94 9b 07 	call	0xf36	; 0xf36 <LED_OFF>
			LED_ON(&LED_C_YELLOW);
     362:	87 e7       	ldi	r24, 0x77	; 119
     364:	90 e0       	ldi	r25, 0x00	; 0
     366:	0e 94 80 07 	call	0xf00	; 0xf00 <LED_ON>
			LED_ON(&LED_C_GREEN);
     36a:	84 e7       	ldi	r24, 0x74	; 116
     36c:	90 e0       	ldi	r25, 0x00	; 0
     36e:	0e 94 80 07 	call	0xf00	; 0xf00 <LED_ON>
     372:	08 95       	ret
		}
		else if (Mode == 'B') //pedestrian mode
     374:	82 34       	cpi	r24, 0x42	; 66
     376:	09 f0       	breq	.+2      	; 0x37a <TIMER0_CTC_ISR+0x2e0>
     378:	66 c0       	rjmp	.+204    	; 0x446 <__EEPROM_REGION_LENGTH__+0x46>
		{
			
			LED_ON(&LED_P_RED);
     37a:	81 e7       	ldi	r24, 0x71	; 113
     37c:	90 e0       	ldi	r25, 0x00	; 0
     37e:	0e 94 80 07 	call	0xf00	; 0xf00 <LED_ON>
			LED_ON(&LED_P_YELLOW);
     382:	8e e6       	ldi	r24, 0x6E	; 110
     384:	90 e0       	ldi	r25, 0x00	; 0
     386:	0e 94 80 07 	call	0xf00	; 0xf00 <LED_ON>
			LED_OFF(&LED_P_GREEN);
     38a:	8b e6       	ldi	r24, 0x6B	; 107
     38c:	90 e0       	ldi	r25, 0x00	; 0
     38e:	0e 94 9b 07 	call	0xf36	; 0xf36 <LED_OFF>
			//turn on cars green led & yellow
			LED_OFF(&LED_C_RED);
     392:	8a e7       	ldi	r24, 0x7A	; 122
     394:	90 e0       	ldi	r25, 0x00	; 0
     396:	0e 94 9b 07 	call	0xf36	; 0xf36 <LED_OFF>
			LED_ON(&LED_C_YELLOW);
     39a:	87 e7       	ldi	r24, 0x77	; 119
     39c:	90 e0       	ldi	r25, 0x00	; 0
     39e:	0e 94 80 07 	call	0xf00	; 0xf00 <LED_ON>
			LED_ON(&LED_C_GREEN);
     3a2:	84 e7       	ldi	r24, 0x74	; 116
     3a4:	90 e0       	ldi	r25, 0x00	; 0
     3a6:	0e 94 80 07 	call	0xf00	; 0xf00 <LED_ON>
     3aa:	08 95       	ret
			
		}
	}
	else if (CTC_counter == 2500)
     3ac:	80 91 bf 00 	lds	r24, 0x00BF	; 0x8000bf <CTC_counter>
     3b0:	90 91 c0 00 	lds	r25, 0x00C0	; 0x8000c0 <CTC_counter+0x1>
     3b4:	84 3c       	cpi	r24, 0xC4	; 196
     3b6:	99 40       	sbci	r25, 0x09	; 9
     3b8:	c1 f5       	brne	.+112    	; 0x42a <__EEPROM_REGION_LENGTH__+0x2a>
	{
		if (Mode == 'A') // normal mode
     3ba:	80 91 7d 00 	lds	r24, 0x007D	; 0x80007d <Mode>
     3be:	81 34       	cpi	r24, 0x41	; 65
     3c0:	c9 f4       	brne	.+50     	; 0x3f4 <TIMER0_CTC_ISR+0x35a>
		{
			//turn off the pedestrian led s
			LED_OFF(&LED_P_RED);
     3c2:	81 e7       	ldi	r24, 0x71	; 113
     3c4:	90 e0       	ldi	r25, 0x00	; 0
     3c6:	0e 94 9b 07 	call	0xf36	; 0xf36 <LED_OFF>
			LED_OFF(&LED_P_YELLOW);
     3ca:	8e e6       	ldi	r24, 0x6E	; 110
     3cc:	90 e0       	ldi	r25, 0x00	; 0
     3ce:	0e 94 9b 07 	call	0xf36	; 0xf36 <LED_OFF>
			LED_OFF(&LED_P_GREEN);
     3d2:	8b e6       	ldi	r24, 0x6B	; 107
     3d4:	90 e0       	ldi	r25, 0x00	; 0
     3d6:	0e 94 9b 07 	call	0xf36	; 0xf36 <LED_OFF>
			//turn on cars green led & yellow
			LED_ON(&LED_C_RED);
     3da:	8a e7       	ldi	r24, 0x7A	; 122
     3dc:	90 e0       	ldi	r25, 0x00	; 0
     3de:	0e 94 80 07 	call	0xf00	; 0xf00 <LED_ON>
			LED_OFF(&LED_C_YELLOW);
     3e2:	87 e7       	ldi	r24, 0x77	; 119
     3e4:	90 e0       	ldi	r25, 0x00	; 0
     3e6:	0e 94 9b 07 	call	0xf36	; 0xf36 <LED_OFF>
			LED_OFF(&LED_C_GREEN);
     3ea:	84 e7       	ldi	r24, 0x74	; 116
     3ec:	90 e0       	ldi	r25, 0x00	; 0
     3ee:	0e 94 9b 07 	call	0xf36	; 0xf36 <LED_OFF>
     3f2:	08 95       	ret
		}
		else if (Mode == 'B') //pedestrian mode
     3f4:	82 34       	cpi	r24, 0x42	; 66
     3f6:	39 f5       	brne	.+78     	; 0x446 <__EEPROM_REGION_LENGTH__+0x46>
		{
		
			LED_OFF(&LED_P_RED);
     3f8:	81 e7       	ldi	r24, 0x71	; 113
     3fa:	90 e0       	ldi	r25, 0x00	; 0
     3fc:	0e 94 9b 07 	call	0xf36	; 0xf36 <LED_OFF>
			LED_OFF(&LED_P_YELLOW);
     400:	8e e6       	ldi	r24, 0x6E	; 110
     402:	90 e0       	ldi	r25, 0x00	; 0
     404:	0e 94 9b 07 	call	0xf36	; 0xf36 <LED_OFF>
			LED_ON(&LED_P_GREEN);
     408:	8b e6       	ldi	r24, 0x6B	; 107
     40a:	90 e0       	ldi	r25, 0x00	; 0
     40c:	0e 94 80 07 	call	0xf00	; 0xf00 <LED_ON>
			//turn on cars green led & yellow
			LED_ON(&LED_C_RED);
     410:	8a e7       	ldi	r24, 0x7A	; 122
     412:	90 e0       	ldi	r25, 0x00	; 0
     414:	0e 94 80 07 	call	0xf00	; 0xf00 <LED_ON>
			LED_OFF(&LED_C_YELLOW);
     418:	87 e7       	ldi	r24, 0x77	; 119
     41a:	90 e0       	ldi	r25, 0x00	; 0
     41c:	0e 94 9b 07 	call	0xf36	; 0xf36 <LED_OFF>
			LED_OFF(&LED_C_GREEN);
     420:	84 e7       	ldi	r24, 0x74	; 116
     422:	90 e0       	ldi	r25, 0x00	; 0
     424:	0e 94 9b 07 	call	0xf36	; 0xf36 <LED_OFF>
     428:	08 95       	ret
			
			
		}
	}
	else if (CTC_counter == 3750)
     42a:	80 91 bf 00 	lds	r24, 0x00BF	; 0x8000bf <CTC_counter>
     42e:	90 91 c0 00 	lds	r25, 0x00C0	; 0x8000c0 <CTC_counter+0x1>
     432:	86 3a       	cpi	r24, 0xA6	; 166
     434:	9e 40       	sbci	r25, 0x0E	; 14
     436:	39 f4       	brne	.+14     	; 0x446 <__EEPROM_REGION_LENGTH__+0x46>
	{
		CTC_counter = 0;
     438:	10 92 c0 00 	sts	0x00C0, r1	; 0x8000c0 <CTC_counter+0x1>
     43c:	10 92 bf 00 	sts	0x00BF, r1	; 0x8000bf <CTC_counter>
		Mode = 'A';
     440:	81 e4       	ldi	r24, 0x41	; 65
     442:	80 93 7d 00 	sts	0x007D, r24	; 0x80007d <Mode>
     446:	08 95       	ret

00000448 <TIMER2_CTC_ISR>:
	Mode = 'B';
	
}
void TIMER2_CTC_ISR(void)
{
	timer2_counter ++;
     448:	80 91 b6 00 	lds	r24, 0x00B6	; 0x8000b6 <timer2_counter>
     44c:	8f 5f       	subi	r24, 0xFF	; 255
     44e:	80 93 b6 00 	sts	0x00B6, r24	; 0x8000b6 <timer2_counter>
	/* for 90 degree */
	if (timer2_counter >= servo_timeOn)
     452:	90 91 b6 00 	lds	r25, 0x00B6	; 0x8000b6 <timer2_counter>
     456:	80 91 62 00 	lds	r24, 0x0062	; 0x800062 <servo_timeOn>
     45a:	98 17       	cp	r25, r24
     45c:	40 f0       	brcs	.+16     	; 0x46e <TIMER2_CTC_ISR+0x26>
	{
		GPIO_SETPIN_VALUE(servo_in.servoPort,servo_in.servoPin,GPIO_LOW);
     45e:	e0 e6       	ldi	r30, 0x60	; 96
     460:	f0 e0       	ldi	r31, 0x00	; 0
     462:	40 e0       	ldi	r20, 0x00	; 0
     464:	61 81       	ldd	r22, Z+1	; 0x01
     466:	80 81       	ld	r24, Z
     468:	0e 94 fc 04 	call	0x9f8	; 0x9f8 <GPIO_SETPIN_VALUE>
     46c:	08 95       	ret
	} 
	else if (timer2_counter >= 160)
     46e:	80 91 b6 00 	lds	r24, 0x00B6	; 0x8000b6 <timer2_counter>
     472:	80 3a       	cpi	r24, 0xA0	; 160
     474:	50 f0       	brcs	.+20     	; 0x48a <TIMER2_CTC_ISR+0x42>
	{
		GPIO_SETPIN_VALUE(servo_in.servoPort,servo_in.servoPin,GPIO_HIGH);
     476:	e0 e6       	ldi	r30, 0x60	; 96
     478:	f0 e0       	ldi	r31, 0x00	; 0
     47a:	41 e0       	ldi	r20, 0x01	; 1
     47c:	61 81       	ldd	r22, Z+1	; 0x01
     47e:	80 81       	ld	r24, Z
     480:	0e 94 fc 04 	call	0x9f8	; 0x9f8 <GPIO_SETPIN_VALUE>
		timer2_counter = 0;
     484:	10 92 b6 00 	sts	0x00B6, r1	; 0x8000b6 <timer2_counter>
     488:	08 95       	ret
	}
	else
	{
		GPIO_SETPIN_VALUE(servo_in.servoPort,servo_in.servoPin,GPIO_HIGH);
     48a:	e0 e6       	ldi	r30, 0x60	; 96
     48c:	f0 e0       	ldi	r31, 0x00	; 0
     48e:	41 e0       	ldi	r20, 0x01	; 1
     490:	61 81       	ldd	r22, Z+1	; 0x01
     492:	80 81       	ld	r24, Z
     494:	0e 94 fc 04 	call	0x9f8	; 0x9f8 <GPIO_SETPIN_VALUE>
     498:	08 95       	ret

0000049a <TRAFFIC_INIT>:

/***********************************************************************************************************************/
void TRAFFIC_INIT(void)
{
	/**************************************smart parking *******************************************************************/
    ULTRASONIC_INIT(&p1);
     49a:	89 e6       	ldi	r24, 0x69	; 105
     49c:	90 e0       	ldi	r25, 0x00	; 0
     49e:	0e 94 bd 07 	call	0xf7a	; 0xf7a <ULTRASONIC_INIT>
	ULTRASONIC_INIT(&p2);
     4a2:	87 e6       	ldi	r24, 0x67	; 103
     4a4:	90 e0       	ldi	r25, 0x00	; 0
     4a6:	0e 94 bd 07 	call	0xf7a	; 0xf7a <ULTRASONIC_INIT>
    ULTRASONIC_INIT(&G_IN);
     4aa:	85 e6       	ldi	r24, 0x65	; 101
     4ac:	90 e0       	ldi	r25, 0x00	; 0
     4ae:	0e 94 bd 07 	call	0xf7a	; 0xf7a <ULTRASONIC_INIT>
    ULTRASONIC_INIT(&G_OUT);
     4b2:	83 e6       	ldi	r24, 0x63	; 99
     4b4:	90 e0       	ldi	r25, 0x00	; 0
     4b6:	0e 94 bd 07 	call	0xf7a	; 0xf7a <ULTRASONIC_INIT>
	TIMER2_INIT();
     4ba:	0e 94 f6 05 	call	0xbec	; 0xbec <TIMER2_INIT>
	SERVO_INIT(&servo_in);  // for enter gate
     4be:	80 e6       	ldi	r24, 0x60	; 96
     4c0:	90 e0       	ldi	r25, 0x00	; 0
     4c2:	0e 94 b6 07 	call	0xf6c	; 0xf6c <SERVO_INIT>
	TIMER2_SET_CALL_BACK(CTC_INTERRUPT,&TIMER2_CTC_ISR);
     4c6:	64 e2       	ldi	r22, 0x24	; 36
     4c8:	72 e0       	ldi	r23, 0x02	; 2
     4ca:	82 e0       	ldi	r24, 0x02	; 2
     4cc:	0e 94 08 06 	call	0xc10	; 0xc10 <TIMER2_SET_CALL_BACK>
	/***************************on demand traffic light***************************************************/
	LED_INIT(&LED_C_RED);
     4d0:	8a e7       	ldi	r24, 0x7A	; 122
     4d2:	90 e0       	ldi	r25, 0x00	; 0
     4d4:	0e 94 74 07 	call	0xee8	; 0xee8 <LED_INIT>
	LED_INIT(&LED_C_YELLOW);
     4d8:	87 e7       	ldi	r24, 0x77	; 119
     4da:	90 e0       	ldi	r25, 0x00	; 0
     4dc:	0e 94 74 07 	call	0xee8	; 0xee8 <LED_INIT>
	LED_INIT(&LED_C_GREEN);
     4e0:	84 e7       	ldi	r24, 0x74	; 116
     4e2:	90 e0       	ldi	r25, 0x00	; 0
     4e4:	0e 94 74 07 	call	0xee8	; 0xee8 <LED_INIT>
	LED_INIT(&LED_P_RED);
     4e8:	81 e7       	ldi	r24, 0x71	; 113
     4ea:	90 e0       	ldi	r25, 0x00	; 0
     4ec:	0e 94 74 07 	call	0xee8	; 0xee8 <LED_INIT>
	LED_INIT(&LED_P_YELLOW);
     4f0:	8e e6       	ldi	r24, 0x6E	; 110
     4f2:	90 e0       	ldi	r25, 0x00	; 0
     4f4:	0e 94 74 07 	call	0xee8	; 0xee8 <LED_INIT>
	LED_INIT(&LED_P_GREEN);
     4f8:	8b e6       	ldi	r24, 0x6B	; 107
     4fa:	90 e0       	ldi	r25, 0x00	; 0
     4fc:	0e 94 74 07 	call	0xee8	; 0xee8 <LED_INIT>
	LCD_INIT();
     500:	0e 94 e8 06 	call	0xdd0	; 0xdd0 <LCD_INIT>
	TIMER0_INIT();
     504:	0e 94 7b 05 	call	0xaf6	; 0xaf6 <TIMER0_INIT>
	EXT_INTERRUPT_INIT();
     508:	0e 94 d2 03 	call	0x7a4	; 0x7a4 <EXT_INTERRUPT_INIT>
	EXT_ENABLE_GLOBAL();
     50c:	0e 94 eb 03 	call	0x7d6	; 0x7d6 <EXT_ENABLE_GLOBAL>
	EXT_SET_CALL_BACK(INT0,&ISR0);
     510:	69 e4       	ldi	r22, 0x49	; 73
     512:	70 e0       	ldi	r23, 0x00	; 0
     514:	80 e0       	ldi	r24, 0x00	; 0
     516:	0e 94 ef 03 	call	0x7de	; 0x7de <EXT_SET_CALL_BACK>
	TIMER0_SET_CALL_BACK(CTC_INTERRUPT,&TIMER0_CTC_ISR);
     51a:	6d e4       	ldi	r22, 0x4D	; 77
     51c:	70 e0       	ldi	r23, 0x00	; 0
     51e:	82 e0       	ldi	r24, 0x02	; 2
     520:	0e 94 8d 05 	call	0xb1a	; 0xb1a <TIMER0_SET_CALL_BACK>
     524:	08 95       	ret

00000526 <TRAFFIC_START>:

void TRAFFIC_START(void)
{
	/* parking App loop*/
	/* getting reading of sensors */
   distance_p1 = ULTRASONIC_START_MEASURE(&p1) ;
     526:	89 e6       	ldi	r24, 0x69	; 105
     528:	90 e0       	ldi	r25, 0x00	; 0
     52a:	0e 94 c4 07 	call	0xf88	; 0xf88 <ULTRASONIC_START_MEASURE>
     52e:	90 93 be 00 	sts	0x00BE, r25	; 0x8000be <distance_p1+0x1>
     532:	80 93 bd 00 	sts	0x00BD, r24	; 0x8000bd <distance_p1>
   distance_p2 = ULTRASONIC_START_MEASURE(&p2) ;
     536:	87 e6       	ldi	r24, 0x67	; 103
     538:	90 e0       	ldi	r25, 0x00	; 0
     53a:	0e 94 c4 07 	call	0xf88	; 0xf88 <ULTRASONIC_START_MEASURE>
     53e:	90 93 bc 00 	sts	0x00BC, r25	; 0x8000bc <distance_p2+0x1>
     542:	80 93 bb 00 	sts	0x00BB, r24	; 0x8000bb <distance_p2>
   distance_G_IN = ULTRASONIC_START_MEASURE(&G_IN);
     546:	85 e6       	ldi	r24, 0x65	; 101
     548:	90 e0       	ldi	r25, 0x00	; 0
     54a:	0e 94 c4 07 	call	0xf88	; 0xf88 <ULTRASONIC_START_MEASURE>
     54e:	90 93 ba 00 	sts	0x00BA, r25	; 0x8000ba <distance_G_IN+0x1>
     552:	80 93 b9 00 	sts	0x00B9, r24	; 0x8000b9 <distance_G_IN>
   distance_G_OUT= ULTRASONIC_START_MEASURE(&G_OUT);
     556:	83 e6       	ldi	r24, 0x63	; 99
     558:	90 e0       	ldi	r25, 0x00	; 0
     55a:	0e 94 c4 07 	call	0xf88	; 0xf88 <ULTRASONIC_START_MEASURE>
     55e:	9c 01       	movw	r18, r24
     560:	90 93 b8 00 	sts	0x00B8, r25	; 0x8000b8 <distance_G_OUT+0x1>
     564:	80 93 b7 00 	sts	0x00B7, r24	; 0x8000b7 <distance_G_OUT>
    /* place 1 check */
   if (distance_p1 < 10)
     568:	80 91 bd 00 	lds	r24, 0x00BD	; 0x8000bd <distance_p1>
     56c:	90 91 be 00 	lds	r25, 0x00BE	; 0x8000be <distance_p1+0x1>
     570:	0a 97       	sbiw	r24, 0x0a	; 10
     572:	20 f4       	brcc	.+8      	; 0x57c <TRAFFIC_START+0x56>
   {
	   p1_flag = 1; // the place is reserved
     574:	81 e0       	ldi	r24, 0x01	; 1
     576:	80 93 b5 00 	sts	0x00B5, r24	; 0x8000b5 <p1_flag>
     57a:	02 c0       	rjmp	.+4      	; 0x580 <TRAFFIC_START+0x5a>
   } 
   else
   {
	   p1_flag = 0; // the place is empty
     57c:	10 92 b5 00 	sts	0x00B5, r1	; 0x8000b5 <p1_flag>
   }
   /* place 2 check */
   if (distance_p2 < 10)
     580:	80 91 bb 00 	lds	r24, 0x00BB	; 0x8000bb <distance_p2>
     584:	90 91 bc 00 	lds	r25, 0x00BC	; 0x8000bc <distance_p2+0x1>
     588:	0a 97       	sbiw	r24, 0x0a	; 10
     58a:	20 f4       	brcc	.+8      	; 0x594 <TRAFFIC_START+0x6e>
   {
	   p2_flag = 1;  // the place is reserved
     58c:	81 e0       	ldi	r24, 0x01	; 1
     58e:	80 93 b4 00 	sts	0x00B4, r24	; 0x8000b4 <p2_flag>
     592:	02 c0       	rjmp	.+4      	; 0x598 <TRAFFIC_START+0x72>
   } 
   else
   {
	   p2_flag = 0;  // the place is empty
     594:	10 92 b4 00 	sts	0x00B4, r1	; 0x8000b4 <p2_flag>
   }
    /* overall check */
   if ((p1_flag == 1) && (p2_flag == 1))
     598:	90 91 b5 00 	lds	r25, 0x00B5	; 0x8000b5 <p1_flag>
     59c:	91 30       	cpi	r25, 0x01	; 1
     59e:	39 f4       	brne	.+14     	; 0x5ae <TRAFFIC_START+0x88>
     5a0:	80 91 b4 00 	lds	r24, 0x00B4	; 0x8000b4 <p2_flag>
     5a4:	81 30       	cpi	r24, 0x01	; 1
     5a6:	19 f4       	brne	.+6      	; 0x5ae <TRAFFIC_START+0x88>
   {
	   complete_flag = 1; // complete places
     5a8:	80 93 b3 00 	sts	0x00B3, r24	; 0x8000b3 <complete_flag>
     5ac:	02 c0       	rjmp	.+4      	; 0x5b2 <TRAFFIC_START+0x8c>
   } 
   else
   {
	   complete_flag = 0;  
     5ae:	10 92 b3 00 	sts	0x00B3, r1	; 0x8000b3 <complete_flag>
   }
    places = p1_flag + p2_flag;   // if the place reserved his flag will = 1
     5b2:	80 91 b4 00 	lds	r24, 0x00B4	; 0x8000b4 <p2_flag>
     5b6:	98 0f       	add	r25, r24
     5b8:	90 93 b2 00 	sts	0x00B2, r25	; 0x8000b2 <__data_end>
   /* enter gate */
   if (((distance_G_IN < 10) && (complete_flag == 0)) || (distance_G_OUT < 10))
     5bc:	80 91 b9 00 	lds	r24, 0x00B9	; 0x8000b9 <distance_G_IN>
     5c0:	90 91 ba 00 	lds	r25, 0x00BA	; 0x8000ba <distance_G_IN+0x1>
     5c4:	8a 30       	cpi	r24, 0x0A	; 10
     5c6:	91 05       	cpc	r25, r1
     5c8:	20 f4       	brcc	.+8      	; 0x5d2 <TRAFFIC_START+0xac>
     5ca:	40 91 b3 00 	lds	r20, 0x00B3	; 0x8000b3 <complete_flag>
     5ce:	44 23       	and	r20, r20
     5d0:	19 f0       	breq	.+6      	; 0x5d8 <TRAFFIC_START+0xb2>
     5d2:	2a 30       	cpi	r18, 0x0A	; 10
     5d4:	31 05       	cpc	r19, r1
     5d6:	e0 f4       	brcc	.+56     	; 0x610 <TRAFFIC_START+0xea>
   {
	    /* servo (gate) on */
		servo_timeOn = 12;
     5d8:	8c e0       	ldi	r24, 0x0C	; 12
     5da:	80 93 62 00 	sts	0x0062, r24	; 0x800062 <servo_timeOn>
		  /* print parking data on lcd */
		
		  LCD_SET_CURSOR(0,0);
     5de:	60 e0       	ldi	r22, 0x00	; 0
     5e0:	80 e0       	ldi	r24, 0x00	; 0
     5e2:	0e 94 60 07 	call	0xec0	; 0xec0 <LCD_SET_CURSOR>
		  LCD_WRITE_STRING("Available places");
     5e6:	8e e7       	ldi	r24, 0x7E	; 126
     5e8:	90 e0       	ldi	r25, 0x00	; 0
     5ea:	0e 94 2a 07 	call	0xe54	; 0xe54 <LCD_WRITE_STRING>
		  LCD_SET_CURSOR(1,7);
     5ee:	67 e0       	ldi	r22, 0x07	; 7
     5f0:	81 e0       	ldi	r24, 0x01	; 1
     5f2:	0e 94 60 07 	call	0xec0	; 0xec0 <LCD_SET_CURSOR>
		  LCD_WRITE_NUMBER((2-places));
     5f6:	80 91 b2 00 	lds	r24, 0x00B2	; 0x8000b2 <__data_end>
     5fa:	62 e0       	ldi	r22, 0x02	; 2
     5fc:	70 e0       	ldi	r23, 0x00	; 0
     5fe:	68 1b       	sub	r22, r24
     600:	71 09       	sbc	r23, r1
     602:	07 2e       	mov	r0, r23
     604:	00 0c       	add	r0, r0
     606:	88 0b       	sbc	r24, r24
     608:	99 0b       	sbc	r25, r25
     60a:	0e 94 41 07 	call	0xe82	; 0xe82 <LCD_WRITE_NUMBER>
     60e:	08 95       	ret
		
   } 
   else if ((distance_G_IN < 10) && (complete_flag == 1))
     610:	0a 97       	sbiw	r24, 0x0a	; 10
     612:	c0 f4       	brcc	.+48     	; 0x644 <TRAFFIC_START+0x11e>
     614:	80 91 b3 00 	lds	r24, 0x00B3	; 0x8000b3 <complete_flag>
     618:	81 30       	cpi	r24, 0x01	; 1
     61a:	a1 f4       	brne	.+40     	; 0x644 <TRAFFIC_START+0x11e>
   {
	   /* servo (gate) off */
	   servo_timeOn = 8;
     61c:	88 e0       	ldi	r24, 0x08	; 8
     61e:	80 93 62 00 	sts	0x0062, r24	; 0x800062 <servo_timeOn>
	   LCD_SET_CURSOR(0,0);
     622:	60 e0       	ldi	r22, 0x00	; 0
     624:	80 e0       	ldi	r24, 0x00	; 0
     626:	0e 94 60 07 	call	0xec0	; 0xec0 <LCD_SET_CURSOR>
	   LCD_WRITE_STRING("Parking Complete");
     62a:	8f e8       	ldi	r24, 0x8F	; 143
     62c:	90 e0       	ldi	r25, 0x00	; 0
     62e:	0e 94 2a 07 	call	0xe54	; 0xe54 <LCD_WRITE_STRING>
	   LCD_SET_CURSOR(1,0);
     632:	60 e0       	ldi	r22, 0x00	; 0
     634:	81 e0       	ldi	r24, 0x01	; 1
     636:	0e 94 60 07 	call	0xec0	; 0xec0 <LCD_SET_CURSOR>
	   LCD_WRITE_STRING("                ");
     63a:	80 ea       	ldi	r24, 0xA0	; 160
     63c:	90 e0       	ldi	r25, 0x00	; 0
     63e:	0e 94 2a 07 	call	0xe54	; 0xe54 <LCD_WRITE_STRING>
     642:	08 95       	ret
   }
   else
   {
	   /* servo (gate) off */
	   servo_timeOn = 8;
     644:	88 e0       	ldi	r24, 0x08	; 8
     646:	80 93 62 00 	sts	0x0062, r24	; 0x800062 <servo_timeOn>
	   /* print parking data on lcd */
	   
	   LCD_SET_CURSOR(0,0);
     64a:	60 e0       	ldi	r22, 0x00	; 0
     64c:	80 e0       	ldi	r24, 0x00	; 0
     64e:	0e 94 60 07 	call	0xec0	; 0xec0 <LCD_SET_CURSOR>
	   LCD_WRITE_STRING("Available places");
     652:	8e e7       	ldi	r24, 0x7E	; 126
     654:	90 e0       	ldi	r25, 0x00	; 0
     656:	0e 94 2a 07 	call	0xe54	; 0xe54 <LCD_WRITE_STRING>
	   LCD_SET_CURSOR(1,7);
     65a:	67 e0       	ldi	r22, 0x07	; 7
     65c:	81 e0       	ldi	r24, 0x01	; 1
     65e:	0e 94 60 07 	call	0xec0	; 0xec0 <LCD_SET_CURSOR>
	   LCD_WRITE_NUMBER((2-places)); 
     662:	80 91 b2 00 	lds	r24, 0x00B2	; 0x8000b2 <__data_end>
     666:	62 e0       	ldi	r22, 0x02	; 2
     668:	70 e0       	ldi	r23, 0x00	; 0
     66a:	68 1b       	sub	r22, r24
     66c:	71 09       	sbc	r23, r1
     66e:	07 2e       	mov	r0, r23
     670:	00 0c       	add	r0, r0
     672:	88 0b       	sbc	r24, r24
     674:	99 0b       	sbc	r25, r25
     676:	0e 94 41 07 	call	0xe82	; 0xe82 <LCD_WRITE_NUMBER>
     67a:	08 95       	ret

0000067c <main>:

int main(void)
{

//APP_INIT();
TRAFFIC_INIT();
     67c:	0e 94 4d 02 	call	0x49a	; 0x49a <TRAFFIC_INIT>
    {
	
	
	
 //APP_START();
 TRAFFIC_START();
     680:	0e 94 93 02 	call	0x526	; 0x526 <TRAFFIC_START>
     684:	fd cf       	rjmp	.-6      	; 0x680 <main+0x4>

00000686 <ADC_START_CHAIN_CONVERSION_ASYN>:
/*    moustafa                                                                     */
/************************************************************************/
/* global interrupt must enabled before using this function*/
ERROR_STATE_t ADC_START_CHAIN_CONVERSION_ASYN(uint8 channel, uint16 *Result , void(*NotificationFun)(void))
{
  ADC_Asyn_Chain_Flag = ASYN_CHAIN_ON; //////////////////////////////////////////////////////////////////////////////
     686:	10 92 c2 00 	sts	0x00C2, r1	; 0x8000c2 <ADC_Asyn_Chain_Flag>
  ERROR_STATE_t error_state = F_NOK;
  if (NULL == Result || NULL == NotificationFun)
     68a:	61 15       	cp	r22, r1
     68c:	71 05       	cpc	r23, r1
     68e:	11 f1       	breq	.+68     	; 0x6d4 <ADC_START_CHAIN_CONVERSION_ASYN+0x4e>
     690:	41 15       	cp	r20, r1
     692:	51 05       	cpc	r21, r1
     694:	09 f1       	breq	.+66     	; 0x6d8 <ADC_START_CHAIN_CONVERSION_ASYN+0x52>
	  error_state = F_NULL_POINTER;
  }
  else
  {
	  /* check ADC is idle */
	  if (ADC_Busy_Flag == IDLE)
     696:	90 91 c3 00 	lds	r25, 0x00C3	; 0x8000c3 <ADC_Busy_Flag>
     69a:	91 11       	cpse	r25, r1
     69c:	1f c0       	rjmp	.+62     	; 0x6dc <ADC_START_CHAIN_CONVERSION_ASYN+0x56>
	  {
		  /* ADC is now busy */
		  ADC_Busy_Flag = BUSY;
     69e:	91 e0       	ldi	r25, 0x01	; 1
     6a0:	90 93 c3 00 	sts	0x00C3, r25	; 0x8000c3 <ADC_Busy_Flag>
		  /* initialize the ADC result pointer globally */
		  ADC_Result = Result;
     6a4:	70 93 c7 00 	sts	0x00C7, r23	; 0x8000c7 <ADC_Result+0x1>
     6a8:	60 93 c6 00 	sts	0x00C6, r22	; 0x8000c6 <ADC_Result>
		  
		  /* initialize the ADC notification function pointer globally */
		  ADC_ASYN_NotificationFun = NotificationFun;
     6ac:	50 93 c5 00 	sts	0x00C5, r21	; 0x8000c5 <ADC_ASYN_NotificationFun+0x1>
     6b0:	40 93 c4 00 	sts	0x00C4, r20	; 0x8000c4 <ADC_ASYN_NotificationFun>
		  /* initialize the ADC channel globally */
		  ADC_Chain_Channel = channel;
     6b4:	80 93 c1 00 	sts	0x00C1, r24	; 0x8000c1 <ADC_Chain_Channel>
		  
		  /* Set the required channel */
		  ADMUX &= 0b11100000;
     6b8:	97 b1       	in	r25, 0x07	; 7
     6ba:	90 7e       	andi	r25, 0xE0	; 224
     6bc:	97 b9       	out	0x07, r25	; 7
		  ADMUX |= channel;
     6be:	97 b1       	in	r25, 0x07	; 7
     6c0:	89 2b       	or	r24, r25
     6c2:	87 b9       	out	0x07, r24	; 7
		  /* Start conversion */
		  SET_BIT(ADCSRA,ADCSRA_ADSC);
     6c4:	86 b1       	in	r24, 0x06	; 6
     6c6:	80 64       	ori	r24, 0x40	; 64
     6c8:	86 b9       	out	0x06, r24	; 6
		  
		  /* ADC conversion complete interrupt enable */
		  SET_BIT(ADCSRA,ADCSRA_ADIE);
     6ca:	86 b1       	in	r24, 0x06	; 6
     6cc:	88 60       	ori	r24, 0x08	; 8
     6ce:	86 b9       	out	0x06, r24	; 6
		  
		  error_state = F_OK;
     6d0:	80 e0       	ldi	r24, 0x00	; 0
     6d2:	08 95       	ret
{
  ADC_Asyn_Chain_Flag = ASYN_CHAIN_ON; //////////////////////////////////////////////////////////////////////////////
  ERROR_STATE_t error_state = F_NOK;
  if (NULL == Result || NULL == NotificationFun)
  {
	  error_state = F_NULL_POINTER;
     6d4:	82 e0       	ldi	r24, 0x02	; 2
     6d6:	08 95       	ret
     6d8:	82 e0       	ldi	r24, 0x02	; 2
     6da:	08 95       	ret
		  
		  error_state = F_OK;
	  }
	  else
	  {
		  error_state = F_BUSY;
     6dc:	84 e0       	ldi	r24, 0x04	; 4
	  }
	  
  }
  
  return error_state;	
}
     6de:	08 95       	ret

000006e0 <__vector_16>:
/*    moustafa                                                                     */
/************************************************************************/
/* ADC ISR */
void __vector_16(void)   __attribute__((signal));
void __vector_16(void)
{
     6e0:	1f 92       	push	r1
     6e2:	0f 92       	push	r0
     6e4:	0f b6       	in	r0, 0x3f	; 63
     6e6:	0f 92       	push	r0
     6e8:	11 24       	eor	r1, r1
     6ea:	2f 93       	push	r18
     6ec:	3f 93       	push	r19
     6ee:	4f 93       	push	r20
     6f0:	5f 93       	push	r21
     6f2:	6f 93       	push	r22
     6f4:	7f 93       	push	r23
     6f6:	8f 93       	push	r24
     6f8:	9f 93       	push	r25
     6fa:	af 93       	push	r26
     6fc:	bf 93       	push	r27
     6fe:	ef 93       	push	r30
     700:	ff 93       	push	r31
	/* apply the normal mode */
	if (ADC_Asyn_Chain_Flag == ASYN_CHAIN_OFF)
     702:	80 91 c2 00 	lds	r24, 0x00C2	; 0x8000c2 <ADC_Asyn_Chain_Flag>
     706:	81 30       	cpi	r24, 0x01	; 1
     708:	71 f4       	brne	.+28     	; 0x726 <__vector_16+0x46>
	{
		/* Read the result */
		#if ADC_RESOLUTION == ADC_TEN_BIT
		*ADC_Result = ADC_L_H;
     70a:	e0 91 c6 00 	lds	r30, 0x00C6	; 0x8000c6 <ADC_Result>
     70e:	f0 91 c7 00 	lds	r31, 0x00C7	; 0x8000c7 <ADC_Result+0x1>
     712:	84 b1       	in	r24, 0x04	; 4
     714:	95 b1       	in	r25, 0x05	; 5
     716:	91 83       	std	Z+1, r25	; 0x01
     718:	80 83       	st	Z, r24
		#elif ADC_RESOLUTION == ADC_EIGHT_BIT
		*ADC_Result = ADCH;
		#endif
		/* ADC conversion complete interrupt disable */
		CLR_BIT(ADCSRA,ADCSRA_ADIE);
     71a:	86 b1       	in	r24, 0x06	; 6
     71c:	87 7f       	andi	r24, 0xF7	; 247
     71e:	86 b9       	out	0x06, r24	; 6
		/* ADC is now idle */
		ADC_Busy_Flag = IDLE;
     720:	10 92 c3 00 	sts	0x00C3, r1	; 0x8000c3 <ADC_Busy_Flag>
     724:	27 c0       	rjmp	.+78     	; 0x774 <__vector_16+0x94>
	}
	/* apply the chain mode */ 
	else if (ADC_Asyn_Chain_Flag == ASYN_CHAIN_ON)
     726:	81 11       	cpse	r24, r1
     728:	25 c0       	rjmp	.+74     	; 0x774 <__vector_16+0x94>
	{
			/* Read the result */
			#if ADC_RESOLUTION == ADC_TEN_BIT
			ADC_Result[ADC_Chain_Channel] = ADC_L_H;
     72a:	e0 91 c1 00 	lds	r30, 0x00C1	; 0x8000c1 <ADC_Chain_Channel>
     72e:	f0 e0       	ldi	r31, 0x00	; 0
     730:	ee 0f       	add	r30, r30
     732:	ff 1f       	adc	r31, r31
     734:	80 91 c6 00 	lds	r24, 0x00C6	; 0x8000c6 <ADC_Result>
     738:	90 91 c7 00 	lds	r25, 0x00C7	; 0x8000c7 <ADC_Result+0x1>
     73c:	e8 0f       	add	r30, r24
     73e:	f9 1f       	adc	r31, r25
     740:	84 b1       	in	r24, 0x04	; 4
     742:	95 b1       	in	r25, 0x05	; 5
     744:	91 83       	std	Z+1, r25	; 0x01
     746:	80 83       	st	Z, r24
			#elif ADC_RESOLUTION == ADC_EIGHT_BIT
			ADC_Result[ADC_Chain_Channel] = ADCH;
			#endif
			/* ADC conversion complete interrupt disable */
			CLR_BIT(ADCSRA,ADCSRA_ADIE);
     748:	86 b1       	in	r24, 0x06	; 6
     74a:	87 7f       	andi	r24, 0xF7	; 247
     74c:	86 b9       	out	0x06, r24	; 6
			/* ADC is now idle */
			ADC_Busy_Flag = IDLE;
     74e:	10 92 c3 00 	sts	0x00C3, r1	; 0x8000c3 <ADC_Busy_Flag>
			ADC_Chain_Channel = ADC_Chain_Channel+1;
     752:	80 91 c1 00 	lds	r24, 0x00C1	; 0x8000c1 <ADC_Chain_Channel>
     756:	8f 5f       	subi	r24, 0xFF	; 255
     758:	80 93 c1 00 	sts	0x00C1, r24	; 0x8000c1 <ADC_Chain_Channel>
			/* call the function again to achieve the asyn chain */
			if (ADC_Chain_Channel > 7)
     75c:	88 30       	cpi	r24, 0x08	; 8
     75e:	50 f4       	brcc	.+20     	; 0x774 <__vector_16+0x94>
			{
				/* nothing */
			}
			else
			{
				ADC_START_CHAIN_CONVERSION_ASYN(ADC_Chain_Channel,ADC_Result,ADC_ASYN_NotificationFun);
     760:	40 91 c4 00 	lds	r20, 0x00C4	; 0x8000c4 <ADC_ASYN_NotificationFun>
     764:	50 91 c5 00 	lds	r21, 0x00C5	; 0x8000c5 <ADC_ASYN_NotificationFun+0x1>
     768:	60 91 c6 00 	lds	r22, 0x00C6	; 0x8000c6 <ADC_Result>
     76c:	70 91 c7 00 	lds	r23, 0x00C7	; 0x8000c7 <ADC_Result+0x1>
     770:	0e 94 43 03 	call	0x686	; 0x686 <ADC_START_CHAIN_CONVERSION_ASYN>
	{
		/* nothing */
	}
	
	/* Invoke the call back notification function */
	if (NULL == ADC_ASYN_NotificationFun)
     774:	e0 91 c4 00 	lds	r30, 0x00C4	; 0x8000c4 <ADC_ASYN_NotificationFun>
     778:	f0 91 c5 00 	lds	r31, 0x00C5	; 0x8000c5 <ADC_ASYN_NotificationFun+0x1>
     77c:	30 97       	sbiw	r30, 0x00	; 0
     77e:	09 f0       	breq	.+2      	; 0x782 <__vector_16+0xa2>
	{
		/* nothing */
	} 
	else
	{
		ADC_ASYN_NotificationFun();
     780:	09 95       	icall
	}
}
     782:	ff 91       	pop	r31
     784:	ef 91       	pop	r30
     786:	bf 91       	pop	r27
     788:	af 91       	pop	r26
     78a:	9f 91       	pop	r25
     78c:	8f 91       	pop	r24
     78e:	7f 91       	pop	r23
     790:	6f 91       	pop	r22
     792:	5f 91       	pop	r21
     794:	4f 91       	pop	r20
     796:	3f 91       	pop	r19
     798:	2f 91       	pop	r18
     79a:	0f 90       	pop	r0
     79c:	0f be       	out	0x3f, r0	; 63
     79e:	0f 90       	pop	r0
     7a0:	1f 90       	pop	r1
     7a2:	18 95       	reti

000007a4 <EXT_INTERRUPT_INIT>:
	/*volatile __asm ("SEI");  */   //inline assembly syntax in gcc toolchain
}

void EXT_DISABLE_GLOBAL(void)
{
	CLR_BIT(SREG,SREG_I);
     7a4:	85 b7       	in	r24, 0x35	; 53
     7a6:	81 60       	ori	r24, 0x01	; 1
     7a8:	85 bf       	out	0x35, r24	; 53
     7aa:	85 b7       	in	r24, 0x35	; 53
     7ac:	82 60       	ori	r24, 0x02	; 2
     7ae:	85 bf       	out	0x35, r24	; 53
     7b0:	85 b7       	in	r24, 0x35	; 53
     7b2:	8b 7f       	andi	r24, 0xFB	; 251
     7b4:	85 bf       	out	0x35, r24	; 53
     7b6:	85 b7       	in	r24, 0x35	; 53
     7b8:	88 60       	ori	r24, 0x08	; 8
     7ba:	85 bf       	out	0x35, r24	; 53
     7bc:	84 b7       	in	r24, 0x34	; 52
     7be:	8f 7b       	andi	r24, 0xBF	; 191
     7c0:	84 bf       	out	0x34, r24	; 52
     7c2:	8b b7       	in	r24, 0x3b	; 59
     7c4:	80 64       	ori	r24, 0x40	; 64
     7c6:	8b bf       	out	0x3b, r24	; 59
     7c8:	8b b7       	in	r24, 0x3b	; 59
     7ca:	80 68       	ori	r24, 0x80	; 128
     7cc:	8b bf       	out	0x3b, r24	; 59
     7ce:	8b b7       	in	r24, 0x3b	; 59
     7d0:	80 62       	ori	r24, 0x20	; 32
     7d2:	8b bf       	out	0x3b, r24	; 59
     7d4:	08 95       	ret

000007d6 <EXT_ENABLE_GLOBAL>:
     7d6:	8f b7       	in	r24, 0x3f	; 63
     7d8:	80 68       	ori	r24, 0x80	; 128
     7da:	8f bf       	out	0x3f, r24	; 63
     7dc:	08 95       	ret

000007de <EXT_SET_CALL_BACK>:
	return error_state;
}   */
ERROR_STATE_t EXT_SET_CALL_BACK(uint8 int_number,void(*ptr_to_callBackFunction)(void))
{
	ERROR_STATE_t error_state =F_NOK;
	if (NULL== ptr_to_callBackFunction)
     7de:	61 15       	cp	r22, r1
     7e0:	71 05       	cpc	r23, r1
     7e2:	61 f0       	breq	.+24     	; 0x7fc <EXT_SET_CALL_BACK+0x1e>
	{
		error_state =F_NULL_POINTER;
	} 
	else
	{
		if (int_number < 3)
     7e4:	83 30       	cpi	r24, 0x03	; 3
     7e6:	60 f4       	brcc	.+24     	; 0x800 <__DATA_REGION_LENGTH__>
		{
			Array_of_ptr_to_callBackFunction[int_number]=ptr_to_callBackFunction;
     7e8:	e8 2f       	mov	r30, r24
     7ea:	f0 e0       	ldi	r31, 0x00	; 0
     7ec:	ee 0f       	add	r30, r30
     7ee:	ff 1f       	adc	r31, r31
     7f0:	e8 53       	subi	r30, 0x38	; 56
     7f2:	ff 4f       	sbci	r31, 0xFF	; 255
     7f4:	71 83       	std	Z+1, r23	; 0x01
     7f6:	60 83       	st	Z, r22
			error_state = F_OK;
     7f8:	80 e0       	ldi	r24, 0x00	; 0
     7fa:	08 95       	ret
ERROR_STATE_t EXT_SET_CALL_BACK(uint8 int_number,void(*ptr_to_callBackFunction)(void))
{
	ERROR_STATE_t error_state =F_NOK;
	if (NULL== ptr_to_callBackFunction)
	{
		error_state =F_NULL_POINTER;
     7fc:	82 e0       	ldi	r24, 0x02	; 2
     7fe:	08 95       	ret
			Array_of_ptr_to_callBackFunction[int_number]=ptr_to_callBackFunction;
			error_state = F_OK;
		} 
		else
		{
			error_state = F_NOK;
     800:	81 e0       	ldi	r24, 0x01	; 1
		}
	}
	
	return error_state;
}
     802:	08 95       	ret

00000804 <__vector_1>:
/* ISR of INT0*/

void __vector_1(void)   __attribute__((signal));
void __vector_1(void)
{
     804:	1f 92       	push	r1
     806:	0f 92       	push	r0
     808:	0f b6       	in	r0, 0x3f	; 63
     80a:	0f 92       	push	r0
     80c:	11 24       	eor	r1, r1
     80e:	2f 93       	push	r18
     810:	3f 93       	push	r19
     812:	4f 93       	push	r20
     814:	5f 93       	push	r21
     816:	6f 93       	push	r22
     818:	7f 93       	push	r23
     81a:	8f 93       	push	r24
     81c:	9f 93       	push	r25
     81e:	af 93       	push	r26
     820:	bf 93       	push	r27
     822:	ef 93       	push	r30
     824:	ff 93       	push	r31
	
	if (Array_of_ptr_to_callBackFunction[INT0] != NULL)
     826:	e0 91 c8 00 	lds	r30, 0x00C8	; 0x8000c8 <Array_of_ptr_to_callBackFunction>
     82a:	f0 91 c9 00 	lds	r31, 0x00C9	; 0x8000c9 <Array_of_ptr_to_callBackFunction+0x1>
     82e:	30 97       	sbiw	r30, 0x00	; 0
     830:	09 f0       	breq	.+2      	; 0x834 <__vector_1+0x30>
	{
		Array_of_ptr_to_callBackFunction[INT0]();
     832:	09 95       	icall
	else
	{
		/* nothing */
	}
	
}
     834:	ff 91       	pop	r31
     836:	ef 91       	pop	r30
     838:	bf 91       	pop	r27
     83a:	af 91       	pop	r26
     83c:	9f 91       	pop	r25
     83e:	8f 91       	pop	r24
     840:	7f 91       	pop	r23
     842:	6f 91       	pop	r22
     844:	5f 91       	pop	r21
     846:	4f 91       	pop	r20
     848:	3f 91       	pop	r19
     84a:	2f 91       	pop	r18
     84c:	0f 90       	pop	r0
     84e:	0f be       	out	0x3f, r0	; 63
     850:	0f 90       	pop	r0
     852:	1f 90       	pop	r1
     854:	18 95       	reti

00000856 <__vector_2>:

/* ISR of INT1*/

void __vector_2(void)   __attribute__((signal));
void __vector_2(void)
{
     856:	1f 92       	push	r1
     858:	0f 92       	push	r0
     85a:	0f b6       	in	r0, 0x3f	; 63
     85c:	0f 92       	push	r0
     85e:	11 24       	eor	r1, r1
     860:	2f 93       	push	r18
     862:	3f 93       	push	r19
     864:	4f 93       	push	r20
     866:	5f 93       	push	r21
     868:	6f 93       	push	r22
     86a:	7f 93       	push	r23
     86c:	8f 93       	push	r24
     86e:	9f 93       	push	r25
     870:	af 93       	push	r26
     872:	bf 93       	push	r27
     874:	ef 93       	push	r30
     876:	ff 93       	push	r31
	if (Array_of_ptr_to_callBackFunction[INT1] != NULL)
     878:	e0 91 ca 00 	lds	r30, 0x00CA	; 0x8000ca <Array_of_ptr_to_callBackFunction+0x2>
     87c:	f0 91 cb 00 	lds	r31, 0x00CB	; 0x8000cb <Array_of_ptr_to_callBackFunction+0x3>
     880:	30 97       	sbiw	r30, 0x00	; 0
     882:	09 f0       	breq	.+2      	; 0x886 <__stack+0x27>
	{
		Array_of_ptr_to_callBackFunction[INT1]();
     884:	09 95       	icall
	else
	{
		/* nothing */
	}
	
}
     886:	ff 91       	pop	r31
     888:	ef 91       	pop	r30
     88a:	bf 91       	pop	r27
     88c:	af 91       	pop	r26
     88e:	9f 91       	pop	r25
     890:	8f 91       	pop	r24
     892:	7f 91       	pop	r23
     894:	6f 91       	pop	r22
     896:	5f 91       	pop	r21
     898:	4f 91       	pop	r20
     89a:	3f 91       	pop	r19
     89c:	2f 91       	pop	r18
     89e:	0f 90       	pop	r0
     8a0:	0f be       	out	0x3f, r0	; 63
     8a2:	0f 90       	pop	r0
     8a4:	1f 90       	pop	r1
     8a6:	18 95       	reti

000008a8 <__vector_3>:

/* ISR of INT2*/

void __vector_3(void)   __attribute__((signal));
void __vector_3(void)
{
     8a8:	1f 92       	push	r1
     8aa:	0f 92       	push	r0
     8ac:	0f b6       	in	r0, 0x3f	; 63
     8ae:	0f 92       	push	r0
     8b0:	11 24       	eor	r1, r1
     8b2:	2f 93       	push	r18
     8b4:	3f 93       	push	r19
     8b6:	4f 93       	push	r20
     8b8:	5f 93       	push	r21
     8ba:	6f 93       	push	r22
     8bc:	7f 93       	push	r23
     8be:	8f 93       	push	r24
     8c0:	9f 93       	push	r25
     8c2:	af 93       	push	r26
     8c4:	bf 93       	push	r27
     8c6:	ef 93       	push	r30
     8c8:	ff 93       	push	r31
	
	if (Array_of_ptr_to_callBackFunction[INT2] != NULL)
     8ca:	e0 91 cc 00 	lds	r30, 0x00CC	; 0x8000cc <Array_of_ptr_to_callBackFunction+0x4>
     8ce:	f0 91 cd 00 	lds	r31, 0x00CD	; 0x8000cd <Array_of_ptr_to_callBackFunction+0x5>
     8d2:	30 97       	sbiw	r30, 0x00	; 0
     8d4:	09 f0       	breq	.+2      	; 0x8d8 <__vector_3+0x30>
	{
		Array_of_ptr_to_callBackFunction[INT2]();
     8d6:	09 95       	icall
	}
	else
	{
		/* nothing */
	}
}
     8d8:	ff 91       	pop	r31
     8da:	ef 91       	pop	r30
     8dc:	bf 91       	pop	r27
     8de:	af 91       	pop	r26
     8e0:	9f 91       	pop	r25
     8e2:	8f 91       	pop	r24
     8e4:	7f 91       	pop	r23
     8e6:	6f 91       	pop	r22
     8e8:	5f 91       	pop	r21
     8ea:	4f 91       	pop	r20
     8ec:	3f 91       	pop	r19
     8ee:	2f 91       	pop	r18
     8f0:	0f 90       	pop	r0
     8f2:	0f be       	out	0x3f, r0	; 63
     8f4:	0f 90       	pop	r0
     8f6:	1f 90       	pop	r1
     8f8:	18 95       	reti

000008fa <GPIO_SETPIN_DIRECTION>:
			}
			break;
		}
		
		return error_state;
}
     8fa:	44 23       	and	r20, r20
     8fc:	d9 f1       	breq	.+118    	; 0x974 <GPIO_SETPIN_DIRECTION+0x7a>
     8fe:	41 30       	cpi	r20, 0x01	; 1
     900:	09 f0       	breq	.+2      	; 0x904 <GPIO_SETPIN_DIRECTION+0xa>
     902:	74 c0       	rjmp	.+232    	; 0x9ec <GPIO_SETPIN_DIRECTION+0xf2>
     904:	81 30       	cpi	r24, 0x01	; 1
     906:	91 f0       	breq	.+36     	; 0x92c <GPIO_SETPIN_DIRECTION+0x32>
     908:	28 f0       	brcs	.+10     	; 0x914 <GPIO_SETPIN_DIRECTION+0x1a>
     90a:	82 30       	cpi	r24, 0x02	; 2
     90c:	d9 f0       	breq	.+54     	; 0x944 <GPIO_SETPIN_DIRECTION+0x4a>
     90e:	83 30       	cpi	r24, 0x03	; 3
     910:	29 f1       	breq	.+74     	; 0x95c <GPIO_SETPIN_DIRECTION+0x62>
     912:	6e c0       	rjmp	.+220    	; 0x9f0 <GPIO_SETPIN_DIRECTION+0xf6>
     914:	2a b3       	in	r18, 0x1a	; 26
     916:	81 e0       	ldi	r24, 0x01	; 1
     918:	90 e0       	ldi	r25, 0x00	; 0
     91a:	02 c0       	rjmp	.+4      	; 0x920 <GPIO_SETPIN_DIRECTION+0x26>
     91c:	88 0f       	add	r24, r24
     91e:	99 1f       	adc	r25, r25
     920:	6a 95       	dec	r22
     922:	e2 f7       	brpl	.-8      	; 0x91c <GPIO_SETPIN_DIRECTION+0x22>
     924:	82 2b       	or	r24, r18
     926:	8a bb       	out	0x1a, r24	; 26
     928:	80 e0       	ldi	r24, 0x00	; 0
     92a:	08 95       	ret
     92c:	27 b3       	in	r18, 0x17	; 23
     92e:	81 e0       	ldi	r24, 0x01	; 1
     930:	90 e0       	ldi	r25, 0x00	; 0
     932:	02 c0       	rjmp	.+4      	; 0x938 <GPIO_SETPIN_DIRECTION+0x3e>
     934:	88 0f       	add	r24, r24
     936:	99 1f       	adc	r25, r25
     938:	6a 95       	dec	r22
     93a:	e2 f7       	brpl	.-8      	; 0x934 <GPIO_SETPIN_DIRECTION+0x3a>
     93c:	82 2b       	or	r24, r18
     93e:	87 bb       	out	0x17, r24	; 23
     940:	80 e0       	ldi	r24, 0x00	; 0
     942:	08 95       	ret
     944:	24 b3       	in	r18, 0x14	; 20
     946:	81 e0       	ldi	r24, 0x01	; 1
     948:	90 e0       	ldi	r25, 0x00	; 0
     94a:	02 c0       	rjmp	.+4      	; 0x950 <GPIO_SETPIN_DIRECTION+0x56>
     94c:	88 0f       	add	r24, r24
     94e:	99 1f       	adc	r25, r25
     950:	6a 95       	dec	r22
     952:	e2 f7       	brpl	.-8      	; 0x94c <GPIO_SETPIN_DIRECTION+0x52>
     954:	82 2b       	or	r24, r18
     956:	84 bb       	out	0x14, r24	; 20
     958:	80 e0       	ldi	r24, 0x00	; 0
     95a:	08 95       	ret
     95c:	21 b3       	in	r18, 0x11	; 17
     95e:	81 e0       	ldi	r24, 0x01	; 1
     960:	90 e0       	ldi	r25, 0x00	; 0
     962:	02 c0       	rjmp	.+4      	; 0x968 <GPIO_SETPIN_DIRECTION+0x6e>
     964:	88 0f       	add	r24, r24
     966:	99 1f       	adc	r25, r25
     968:	6a 95       	dec	r22
     96a:	e2 f7       	brpl	.-8      	; 0x964 <GPIO_SETPIN_DIRECTION+0x6a>
     96c:	82 2b       	or	r24, r18
     96e:	81 bb       	out	0x11, r24	; 17
     970:	80 e0       	ldi	r24, 0x00	; 0
     972:	08 95       	ret
     974:	81 30       	cpi	r24, 0x01	; 1
     976:	99 f0       	breq	.+38     	; 0x99e <GPIO_SETPIN_DIRECTION+0xa4>
     978:	28 f0       	brcs	.+10     	; 0x984 <GPIO_SETPIN_DIRECTION+0x8a>
     97a:	82 30       	cpi	r24, 0x02	; 2
     97c:	e9 f0       	breq	.+58     	; 0x9b8 <GPIO_SETPIN_DIRECTION+0xbe>
     97e:	83 30       	cpi	r24, 0x03	; 3
     980:	41 f1       	breq	.+80     	; 0x9d2 <GPIO_SETPIN_DIRECTION+0xd8>
     982:	38 c0       	rjmp	.+112    	; 0x9f4 <GPIO_SETPIN_DIRECTION+0xfa>
     984:	2a b3       	in	r18, 0x1a	; 26
     986:	81 e0       	ldi	r24, 0x01	; 1
     988:	90 e0       	ldi	r25, 0x00	; 0
     98a:	02 c0       	rjmp	.+4      	; 0x990 <GPIO_SETPIN_DIRECTION+0x96>
     98c:	88 0f       	add	r24, r24
     98e:	99 1f       	adc	r25, r25
     990:	6a 95       	dec	r22
     992:	e2 f7       	brpl	.-8      	; 0x98c <GPIO_SETPIN_DIRECTION+0x92>
     994:	80 95       	com	r24
     996:	82 23       	and	r24, r18
     998:	8a bb       	out	0x1a, r24	; 26
     99a:	80 e0       	ldi	r24, 0x00	; 0
     99c:	08 95       	ret
     99e:	27 b3       	in	r18, 0x17	; 23
     9a0:	81 e0       	ldi	r24, 0x01	; 1
     9a2:	90 e0       	ldi	r25, 0x00	; 0
     9a4:	02 c0       	rjmp	.+4      	; 0x9aa <GPIO_SETPIN_DIRECTION+0xb0>
     9a6:	88 0f       	add	r24, r24
     9a8:	99 1f       	adc	r25, r25
     9aa:	6a 95       	dec	r22
     9ac:	e2 f7       	brpl	.-8      	; 0x9a6 <GPIO_SETPIN_DIRECTION+0xac>
     9ae:	80 95       	com	r24
     9b0:	82 23       	and	r24, r18
     9b2:	87 bb       	out	0x17, r24	; 23
     9b4:	80 e0       	ldi	r24, 0x00	; 0
     9b6:	08 95       	ret
     9b8:	24 b3       	in	r18, 0x14	; 20
     9ba:	81 e0       	ldi	r24, 0x01	; 1
     9bc:	90 e0       	ldi	r25, 0x00	; 0
     9be:	02 c0       	rjmp	.+4      	; 0x9c4 <GPIO_SETPIN_DIRECTION+0xca>
     9c0:	88 0f       	add	r24, r24
     9c2:	99 1f       	adc	r25, r25
     9c4:	6a 95       	dec	r22
     9c6:	e2 f7       	brpl	.-8      	; 0x9c0 <GPIO_SETPIN_DIRECTION+0xc6>
     9c8:	80 95       	com	r24
     9ca:	82 23       	and	r24, r18
     9cc:	84 bb       	out	0x14, r24	; 20
     9ce:	80 e0       	ldi	r24, 0x00	; 0
     9d0:	08 95       	ret
     9d2:	21 b3       	in	r18, 0x11	; 17
     9d4:	81 e0       	ldi	r24, 0x01	; 1
     9d6:	90 e0       	ldi	r25, 0x00	; 0
     9d8:	02 c0       	rjmp	.+4      	; 0x9de <GPIO_SETPIN_DIRECTION+0xe4>
     9da:	88 0f       	add	r24, r24
     9dc:	99 1f       	adc	r25, r25
     9de:	6a 95       	dec	r22
     9e0:	e2 f7       	brpl	.-8      	; 0x9da <GPIO_SETPIN_DIRECTION+0xe0>
     9e2:	80 95       	com	r24
     9e4:	82 23       	and	r24, r18
     9e6:	81 bb       	out	0x11, r24	; 17
     9e8:	80 e0       	ldi	r24, 0x00	; 0
     9ea:	08 95       	ret
     9ec:	81 e0       	ldi	r24, 0x01	; 1
     9ee:	08 95       	ret
     9f0:	81 e0       	ldi	r24, 0x01	; 1
     9f2:	08 95       	ret
     9f4:	81 e0       	ldi	r24, 0x01	; 1
     9f6:	08 95       	ret

000009f8 <GPIO_SETPIN_VALUE>:

ERROR_STATE_t GPIO_SETPIN_VALUE(GPIO_PORT_t port , GPIO_PIN_t pin ,GPIO_STATE_t state)
{
	ERROR_STATE_t error_state =F_NOK;
	
	switch(state)
     9f8:	44 23       	and	r20, r20
     9fa:	19 f0       	breq	.+6      	; 0xa02 <GPIO_SETPIN_VALUE+0xa>
     9fc:	41 30       	cpi	r20, 0x01	; 1
     9fe:	e9 f1       	breq	.+122    	; 0xa7a <GPIO_SETPIN_VALUE+0x82>
     a00:	74 c0       	rjmp	.+232    	; 0xaea <GPIO_SETPIN_VALUE+0xf2>
	{
		case GPIO_LOW:
		switch(port)
     a02:	81 30       	cpi	r24, 0x01	; 1
     a04:	99 f0       	breq	.+38     	; 0xa2c <GPIO_SETPIN_VALUE+0x34>
     a06:	28 f0       	brcs	.+10     	; 0xa12 <GPIO_SETPIN_VALUE+0x1a>
     a08:	82 30       	cpi	r24, 0x02	; 2
     a0a:	e9 f0       	breq	.+58     	; 0xa46 <GPIO_SETPIN_VALUE+0x4e>
     a0c:	83 30       	cpi	r24, 0x03	; 3
     a0e:	41 f1       	breq	.+80     	; 0xa60 <GPIO_SETPIN_VALUE+0x68>
     a10:	6e c0       	rjmp	.+220    	; 0xaee <GPIO_SETPIN_VALUE+0xf6>
		{
			case GPIO_PORTA:
			CLR_BIT(PORTA,pin);
     a12:	2b b3       	in	r18, 0x1b	; 27
     a14:	81 e0       	ldi	r24, 0x01	; 1
     a16:	90 e0       	ldi	r25, 0x00	; 0
     a18:	02 c0       	rjmp	.+4      	; 0xa1e <GPIO_SETPIN_VALUE+0x26>
     a1a:	88 0f       	add	r24, r24
     a1c:	99 1f       	adc	r25, r25
     a1e:	6a 95       	dec	r22
     a20:	e2 f7       	brpl	.-8      	; 0xa1a <GPIO_SETPIN_VALUE+0x22>
     a22:	80 95       	com	r24
     a24:	82 23       	and	r24, r18
     a26:	8b bb       	out	0x1b, r24	; 27
			error_state =F_OK;
     a28:	80 e0       	ldi	r24, 0x00	; 0
			break;
     a2a:	08 95       	ret
			case GPIO_PORTB:
			CLR_BIT(PORTB,pin);
     a2c:	28 b3       	in	r18, 0x18	; 24
     a2e:	81 e0       	ldi	r24, 0x01	; 1
     a30:	90 e0       	ldi	r25, 0x00	; 0
     a32:	02 c0       	rjmp	.+4      	; 0xa38 <GPIO_SETPIN_VALUE+0x40>
     a34:	88 0f       	add	r24, r24
     a36:	99 1f       	adc	r25, r25
     a38:	6a 95       	dec	r22
     a3a:	e2 f7       	brpl	.-8      	; 0xa34 <GPIO_SETPIN_VALUE+0x3c>
     a3c:	80 95       	com	r24
     a3e:	82 23       	and	r24, r18
     a40:	88 bb       	out	0x18, r24	; 24
			error_state =F_OK;
     a42:	80 e0       	ldi	r24, 0x00	; 0
			break;
     a44:	08 95       	ret
			case GPIO_PORTC:
			CLR_BIT(PORTC,pin);
     a46:	25 b3       	in	r18, 0x15	; 21
     a48:	81 e0       	ldi	r24, 0x01	; 1
     a4a:	90 e0       	ldi	r25, 0x00	; 0
     a4c:	02 c0       	rjmp	.+4      	; 0xa52 <GPIO_SETPIN_VALUE+0x5a>
     a4e:	88 0f       	add	r24, r24
     a50:	99 1f       	adc	r25, r25
     a52:	6a 95       	dec	r22
     a54:	e2 f7       	brpl	.-8      	; 0xa4e <GPIO_SETPIN_VALUE+0x56>
     a56:	80 95       	com	r24
     a58:	82 23       	and	r24, r18
     a5a:	85 bb       	out	0x15, r24	; 21
			error_state =F_OK;
     a5c:	80 e0       	ldi	r24, 0x00	; 0
			break;
     a5e:	08 95       	ret
			case GPIO_PORTD:
			CLR_BIT(PORTD,pin);
     a60:	22 b3       	in	r18, 0x12	; 18
     a62:	81 e0       	ldi	r24, 0x01	; 1
     a64:	90 e0       	ldi	r25, 0x00	; 0
     a66:	02 c0       	rjmp	.+4      	; 0xa6c <GPIO_SETPIN_VALUE+0x74>
     a68:	88 0f       	add	r24, r24
     a6a:	99 1f       	adc	r25, r25
     a6c:	6a 95       	dec	r22
     a6e:	e2 f7       	brpl	.-8      	; 0xa68 <GPIO_SETPIN_VALUE+0x70>
     a70:	80 95       	com	r24
     a72:	82 23       	and	r24, r18
     a74:	82 bb       	out	0x12, r24	; 18
			error_state =F_OK;
     a76:	80 e0       	ldi	r24, 0x00	; 0
			break;
     a78:	08 95       	ret
			error_state =F_NOK;
			break;
		}
		break;
		case GPIO_HIGH:
		switch(port)
     a7a:	81 30       	cpi	r24, 0x01	; 1
     a7c:	91 f0       	breq	.+36     	; 0xaa2 <GPIO_SETPIN_VALUE+0xaa>
     a7e:	28 f0       	brcs	.+10     	; 0xa8a <GPIO_SETPIN_VALUE+0x92>
     a80:	82 30       	cpi	r24, 0x02	; 2
     a82:	d9 f0       	breq	.+54     	; 0xaba <GPIO_SETPIN_VALUE+0xc2>
     a84:	83 30       	cpi	r24, 0x03	; 3
     a86:	29 f1       	breq	.+74     	; 0xad2 <GPIO_SETPIN_VALUE+0xda>
     a88:	34 c0       	rjmp	.+104    	; 0xaf2 <GPIO_SETPIN_VALUE+0xfa>
		{
			case GPIO_PORTA:
			SET_BIT(PORTA,pin);
     a8a:	2b b3       	in	r18, 0x1b	; 27
     a8c:	81 e0       	ldi	r24, 0x01	; 1
     a8e:	90 e0       	ldi	r25, 0x00	; 0
     a90:	02 c0       	rjmp	.+4      	; 0xa96 <GPIO_SETPIN_VALUE+0x9e>
     a92:	88 0f       	add	r24, r24
     a94:	99 1f       	adc	r25, r25
     a96:	6a 95       	dec	r22
     a98:	e2 f7       	brpl	.-8      	; 0xa92 <GPIO_SETPIN_VALUE+0x9a>
     a9a:	82 2b       	or	r24, r18
     a9c:	8b bb       	out	0x1b, r24	; 27
			error_state =F_OK;
     a9e:	80 e0       	ldi	r24, 0x00	; 0
			break;
     aa0:	08 95       	ret
			case GPIO_PORTB:
			SET_BIT(PORTB,pin);
     aa2:	28 b3       	in	r18, 0x18	; 24
     aa4:	81 e0       	ldi	r24, 0x01	; 1
     aa6:	90 e0       	ldi	r25, 0x00	; 0
     aa8:	02 c0       	rjmp	.+4      	; 0xaae <GPIO_SETPIN_VALUE+0xb6>
     aaa:	88 0f       	add	r24, r24
     aac:	99 1f       	adc	r25, r25
     aae:	6a 95       	dec	r22
     ab0:	e2 f7       	brpl	.-8      	; 0xaaa <GPIO_SETPIN_VALUE+0xb2>
     ab2:	82 2b       	or	r24, r18
     ab4:	88 bb       	out	0x18, r24	; 24
			error_state =F_OK;
     ab6:	80 e0       	ldi	r24, 0x00	; 0
			break;
     ab8:	08 95       	ret
			case GPIO_PORTC:
			SET_BIT(PORTC,pin);
     aba:	25 b3       	in	r18, 0x15	; 21
     abc:	81 e0       	ldi	r24, 0x01	; 1
     abe:	90 e0       	ldi	r25, 0x00	; 0
     ac0:	02 c0       	rjmp	.+4      	; 0xac6 <GPIO_SETPIN_VALUE+0xce>
     ac2:	88 0f       	add	r24, r24
     ac4:	99 1f       	adc	r25, r25
     ac6:	6a 95       	dec	r22
     ac8:	e2 f7       	brpl	.-8      	; 0xac2 <GPIO_SETPIN_VALUE+0xca>
     aca:	82 2b       	or	r24, r18
     acc:	85 bb       	out	0x15, r24	; 21
			error_state =F_OK;
     ace:	80 e0       	ldi	r24, 0x00	; 0
			break;
     ad0:	08 95       	ret
			case GPIO_PORTD:
			SET_BIT(PORTD,pin);
     ad2:	22 b3       	in	r18, 0x12	; 18
     ad4:	81 e0       	ldi	r24, 0x01	; 1
     ad6:	90 e0       	ldi	r25, 0x00	; 0
     ad8:	02 c0       	rjmp	.+4      	; 0xade <GPIO_SETPIN_VALUE+0xe6>
     ada:	88 0f       	add	r24, r24
     adc:	99 1f       	adc	r25, r25
     ade:	6a 95       	dec	r22
     ae0:	e2 f7       	brpl	.-8      	; 0xada <GPIO_SETPIN_VALUE+0xe2>
     ae2:	82 2b       	or	r24, r18
     ae4:	82 bb       	out	0x12, r24	; 18
			error_state =F_OK;
     ae6:	80 e0       	ldi	r24, 0x00	; 0
			break;
     ae8:	08 95       	ret
		return error_state;
}

ERROR_STATE_t GPIO_SETPIN_VALUE(GPIO_PORT_t port , GPIO_PIN_t pin ,GPIO_STATE_t state)
{
	ERROR_STATE_t error_state =F_NOK;
     aea:	81 e0       	ldi	r24, 0x01	; 1
     aec:	08 95       	ret
			case GPIO_PORTD:
			CLR_BIT(PORTD,pin);
			error_state =F_OK;
			break;
			default:
			error_state =F_NOK;
     aee:	81 e0       	ldi	r24, 0x01	; 1
     af0:	08 95       	ret
			case GPIO_PORTD:
			SET_BIT(PORTD,pin);
			error_state =F_OK;
			break;
			default:
			error_state =F_NOK;
     af2:	81 e0       	ldi	r24, 0x01	; 1
			break;
		}
		break;
	}
	return error_state;
}
     af4:	08 95       	ret

00000af6 <TIMER0_INIT>:
}

void TIMER0_STOP_COUNTING(void)
{
	TCCR0 &= TIMER_PRESCALER_MASK;
	TCCR0 |= 0;
     af6:	83 b7       	in	r24, 0x33	; 51
     af8:	8f 7b       	andi	r24, 0xBF	; 191
     afa:	83 bf       	out	0x33, r24	; 51
     afc:	83 b7       	in	r24, 0x33	; 51
     afe:	88 60       	ori	r24, 0x08	; 8
     b00:	83 bf       	out	0x33, r24	; 51
     b02:	8a ef       	ldi	r24, 0xFA	; 250
     b04:	8c bf       	out	0x3c, r24	; 60
     b06:	89 b7       	in	r24, 0x39	; 57
     b08:	82 60       	ori	r24, 0x02	; 2
     b0a:	89 bf       	out	0x39, r24	; 57
     b0c:	83 b7       	in	r24, 0x33	; 51
     b0e:	88 7f       	andi	r24, 0xF8	; 248
     b10:	83 bf       	out	0x33, r24	; 51
     b12:	83 b7       	in	r24, 0x33	; 51
     b14:	84 60       	ori	r24, 0x04	; 4
     b16:	83 bf       	out	0x33, r24	; 51
     b18:	08 95       	ret

00000b1a <TIMER0_SET_CALL_BACK>:
     b1a:	61 15       	cp	r22, r1
     b1c:	71 05       	cpc	r23, r1
     b1e:	81 f0       	breq	.+32     	; 0xb40 <TIMER0_SET_CALL_BACK+0x26>
     b20:	81 30       	cpi	r24, 0x01	; 1
     b22:	31 f4       	brne	.+12     	; 0xb30 <TIMER0_SET_CALL_BACK+0x16>
     b24:	70 93 d1 00 	sts	0x00D1, r23	; 0x8000d1 <TIMER0_PtrTo_Overflow_CallBack_Func+0x1>
     b28:	60 93 d0 00 	sts	0x00D0, r22	; 0x8000d0 <TIMER0_PtrTo_Overflow_CallBack_Func>
     b2c:	80 e0       	ldi	r24, 0x00	; 0
     b2e:	08 95       	ret
     b30:	82 30       	cpi	r24, 0x02	; 2
     b32:	41 f4       	brne	.+16     	; 0xb44 <TIMER0_SET_CALL_BACK+0x2a>
     b34:	70 93 cf 00 	sts	0x00CF, r23	; 0x8000cf <TIMER0_PtrTo_CTC_CallBack_Func+0x1>
     b38:	60 93 ce 00 	sts	0x00CE, r22	; 0x8000ce <TIMER0_PtrTo_CTC_CallBack_Func>
     b3c:	80 e0       	ldi	r24, 0x00	; 0
     b3e:	08 95       	ret
     b40:	82 e0       	ldi	r24, 0x02	; 2
     b42:	08 95       	ret
     b44:	81 e0       	ldi	r24, 0x01	; 1
     b46:	08 95       	ret

00000b48 <__vector_11>:

}
/*TIMER0 Normal (overflow) Mode ISR*/
void __vector_11(void)   __attribute__((signal));
void __vector_11(void)
{
     b48:	1f 92       	push	r1
     b4a:	0f 92       	push	r0
     b4c:	0f b6       	in	r0, 0x3f	; 63
     b4e:	0f 92       	push	r0
     b50:	11 24       	eor	r1, r1
     b52:	2f 93       	push	r18
     b54:	3f 93       	push	r19
     b56:	4f 93       	push	r20
     b58:	5f 93       	push	r21
     b5a:	6f 93       	push	r22
     b5c:	7f 93       	push	r23
     b5e:	8f 93       	push	r24
     b60:	9f 93       	push	r25
     b62:	af 93       	push	r26
     b64:	bf 93       	push	r27
     b66:	ef 93       	push	r30
     b68:	ff 93       	push	r31
	if (TIMER0_PtrTo_Overflow_CallBack_Func != NULL)
     b6a:	e0 91 d0 00 	lds	r30, 0x00D0	; 0x8000d0 <TIMER0_PtrTo_Overflow_CallBack_Func>
     b6e:	f0 91 d1 00 	lds	r31, 0x00D1	; 0x8000d1 <TIMER0_PtrTo_Overflow_CallBack_Func+0x1>
     b72:	30 97       	sbiw	r30, 0x00	; 0
     b74:	09 f0       	breq	.+2      	; 0xb78 <__vector_11+0x30>
	{
		TIMER0_PtrTo_Overflow_CallBack_Func();
     b76:	09 95       	icall
	}
	else
	{
		/* nothing */
	}
}
     b78:	ff 91       	pop	r31
     b7a:	ef 91       	pop	r30
     b7c:	bf 91       	pop	r27
     b7e:	af 91       	pop	r26
     b80:	9f 91       	pop	r25
     b82:	8f 91       	pop	r24
     b84:	7f 91       	pop	r23
     b86:	6f 91       	pop	r22
     b88:	5f 91       	pop	r21
     b8a:	4f 91       	pop	r20
     b8c:	3f 91       	pop	r19
     b8e:	2f 91       	pop	r18
     b90:	0f 90       	pop	r0
     b92:	0f be       	out	0x3f, r0	; 63
     b94:	0f 90       	pop	r0
     b96:	1f 90       	pop	r1
     b98:	18 95       	reti

00000b9a <__vector_10>:

/*TIMER0 CTC Mode ISR*/
void __vector_10(void)   __attribute__((signal));
void __vector_10(void)
{
     b9a:	1f 92       	push	r1
     b9c:	0f 92       	push	r0
     b9e:	0f b6       	in	r0, 0x3f	; 63
     ba0:	0f 92       	push	r0
     ba2:	11 24       	eor	r1, r1
     ba4:	2f 93       	push	r18
     ba6:	3f 93       	push	r19
     ba8:	4f 93       	push	r20
     baa:	5f 93       	push	r21
     bac:	6f 93       	push	r22
     bae:	7f 93       	push	r23
     bb0:	8f 93       	push	r24
     bb2:	9f 93       	push	r25
     bb4:	af 93       	push	r26
     bb6:	bf 93       	push	r27
     bb8:	ef 93       	push	r30
     bba:	ff 93       	push	r31
	if (TIMER0_PtrTo_CTC_CallBack_Func != NULL)
     bbc:	e0 91 ce 00 	lds	r30, 0x00CE	; 0x8000ce <TIMER0_PtrTo_CTC_CallBack_Func>
     bc0:	f0 91 cf 00 	lds	r31, 0x00CF	; 0x8000cf <TIMER0_PtrTo_CTC_CallBack_Func+0x1>
     bc4:	30 97       	sbiw	r30, 0x00	; 0
     bc6:	09 f0       	breq	.+2      	; 0xbca <__vector_10+0x30>
	{
		TIMER0_PtrTo_CTC_CallBack_Func();
     bc8:	09 95       	icall
	}
	else
	{
		/* nothing */
	}
}
     bca:	ff 91       	pop	r31
     bcc:	ef 91       	pop	r30
     bce:	bf 91       	pop	r27
     bd0:	af 91       	pop	r26
     bd2:	9f 91       	pop	r25
     bd4:	8f 91       	pop	r24
     bd6:	7f 91       	pop	r23
     bd8:	6f 91       	pop	r22
     bda:	5f 91       	pop	r21
     bdc:	4f 91       	pop	r20
     bde:	3f 91       	pop	r19
     be0:	2f 91       	pop	r18
     be2:	0f 90       	pop	r0
     be4:	0f be       	out	0x3f, r0	; 63
     be6:	0f 90       	pop	r0
     be8:	1f 90       	pop	r1
     bea:	18 95       	reti

00000bec <TIMER2_INIT>:
}

void TIMER2_STOP_COUNTING(void)
{
	TCCR2 &= TIMER_PRESCALER_MASK;
	TCCR2 |= 0;
     bec:	85 b5       	in	r24, 0x25	; 37
     bee:	8f 7b       	andi	r24, 0xBF	; 191
     bf0:	85 bd       	out	0x25, r24	; 37
     bf2:	85 b5       	in	r24, 0x25	; 37
     bf4:	88 60       	ori	r24, 0x08	; 8
     bf6:	85 bd       	out	0x25, r24	; 37
     bf8:	8a ef       	ldi	r24, 0xFA	; 250
     bfa:	83 bd       	out	0x23, r24	; 35
     bfc:	89 b7       	in	r24, 0x39	; 57
     bfe:	80 68       	ori	r24, 0x80	; 128
     c00:	89 bf       	out	0x39, r24	; 57
     c02:	85 b5       	in	r24, 0x25	; 37
     c04:	88 7f       	andi	r24, 0xF8	; 248
     c06:	85 bd       	out	0x25, r24	; 37
     c08:	85 b5       	in	r24, 0x25	; 37
     c0a:	82 60       	ori	r24, 0x02	; 2
     c0c:	85 bd       	out	0x25, r24	; 37
     c0e:	08 95       	ret

00000c10 <TIMER2_SET_CALL_BACK>:
     c10:	61 15       	cp	r22, r1
     c12:	71 05       	cpc	r23, r1
     c14:	81 f0       	breq	.+32     	; 0xc36 <TIMER2_SET_CALL_BACK+0x26>
     c16:	81 30       	cpi	r24, 0x01	; 1
     c18:	31 f4       	brne	.+12     	; 0xc26 <TIMER2_SET_CALL_BACK+0x16>
     c1a:	70 93 d5 00 	sts	0x00D5, r23	; 0x8000d5 <TIMER2_PtrTo_Overflow_CallBack_Func+0x1>
     c1e:	60 93 d4 00 	sts	0x00D4, r22	; 0x8000d4 <TIMER2_PtrTo_Overflow_CallBack_Func>
     c22:	80 e0       	ldi	r24, 0x00	; 0
     c24:	08 95       	ret
     c26:	82 30       	cpi	r24, 0x02	; 2
     c28:	41 f4       	brne	.+16     	; 0xc3a <TIMER2_SET_CALL_BACK+0x2a>
     c2a:	70 93 d3 00 	sts	0x00D3, r23	; 0x8000d3 <TIMER2_PtrTo_CTC_CallBack_Func+0x1>
     c2e:	60 93 d2 00 	sts	0x00D2, r22	; 0x8000d2 <TIMER2_PtrTo_CTC_CallBack_Func>
     c32:	80 e0       	ldi	r24, 0x00	; 0
     c34:	08 95       	ret
     c36:	82 e0       	ldi	r24, 0x02	; 2
     c38:	08 95       	ret
     c3a:	81 e0       	ldi	r24, 0x01	; 1
     c3c:	08 95       	ret

00000c3e <__vector_5>:
}

/*TIMER2 Normal (overflow) Mode ISR*/
void __vector_5(void)   __attribute__((signal));
void __vector_5(void)
{
     c3e:	1f 92       	push	r1
     c40:	0f 92       	push	r0
     c42:	0f b6       	in	r0, 0x3f	; 63
     c44:	0f 92       	push	r0
     c46:	11 24       	eor	r1, r1
     c48:	2f 93       	push	r18
     c4a:	3f 93       	push	r19
     c4c:	4f 93       	push	r20
     c4e:	5f 93       	push	r21
     c50:	6f 93       	push	r22
     c52:	7f 93       	push	r23
     c54:	8f 93       	push	r24
     c56:	9f 93       	push	r25
     c58:	af 93       	push	r26
     c5a:	bf 93       	push	r27
     c5c:	ef 93       	push	r30
     c5e:	ff 93       	push	r31
	if (TIMER2_PtrTo_Overflow_CallBack_Func != NULL)
     c60:	e0 91 d4 00 	lds	r30, 0x00D4	; 0x8000d4 <TIMER2_PtrTo_Overflow_CallBack_Func>
     c64:	f0 91 d5 00 	lds	r31, 0x00D5	; 0x8000d5 <TIMER2_PtrTo_Overflow_CallBack_Func+0x1>
     c68:	30 97       	sbiw	r30, 0x00	; 0
     c6a:	09 f0       	breq	.+2      	; 0xc6e <__vector_5+0x30>
	{
		TIMER2_PtrTo_Overflow_CallBack_Func();
     c6c:	09 95       	icall
	}
	else
	{
		/* nothing */
	}
}
     c6e:	ff 91       	pop	r31
     c70:	ef 91       	pop	r30
     c72:	bf 91       	pop	r27
     c74:	af 91       	pop	r26
     c76:	9f 91       	pop	r25
     c78:	8f 91       	pop	r24
     c7a:	7f 91       	pop	r23
     c7c:	6f 91       	pop	r22
     c7e:	5f 91       	pop	r21
     c80:	4f 91       	pop	r20
     c82:	3f 91       	pop	r19
     c84:	2f 91       	pop	r18
     c86:	0f 90       	pop	r0
     c88:	0f be       	out	0x3f, r0	; 63
     c8a:	0f 90       	pop	r0
     c8c:	1f 90       	pop	r1
     c8e:	18 95       	reti

00000c90 <__vector_4>:

/*TIMER2 CTC Mode ISR*/
void __vector_4(void)   __attribute__((signal));
void __vector_4(void)
{
     c90:	1f 92       	push	r1
     c92:	0f 92       	push	r0
     c94:	0f b6       	in	r0, 0x3f	; 63
     c96:	0f 92       	push	r0
     c98:	11 24       	eor	r1, r1
     c9a:	2f 93       	push	r18
     c9c:	3f 93       	push	r19
     c9e:	4f 93       	push	r20
     ca0:	5f 93       	push	r21
     ca2:	6f 93       	push	r22
     ca4:	7f 93       	push	r23
     ca6:	8f 93       	push	r24
     ca8:	9f 93       	push	r25
     caa:	af 93       	push	r26
     cac:	bf 93       	push	r27
     cae:	ef 93       	push	r30
     cb0:	ff 93       	push	r31
	if (TIMER2_PtrTo_CTC_CallBack_Func != NULL)
     cb2:	e0 91 d2 00 	lds	r30, 0x00D2	; 0x8000d2 <TIMER2_PtrTo_CTC_CallBack_Func>
     cb6:	f0 91 d3 00 	lds	r31, 0x00D3	; 0x8000d3 <TIMER2_PtrTo_CTC_CallBack_Func+0x1>
     cba:	30 97       	sbiw	r30, 0x00	; 0
     cbc:	09 f0       	breq	.+2      	; 0xcc0 <__vector_4+0x30>
	{
		TIMER2_PtrTo_CTC_CallBack_Func();
     cbe:	09 95       	icall
	}
	else
	{
		/* nothing */
	}
}
     cc0:	ff 91       	pop	r31
     cc2:	ef 91       	pop	r30
     cc4:	bf 91       	pop	r27
     cc6:	af 91       	pop	r26
     cc8:	9f 91       	pop	r25
     cca:	8f 91       	pop	r24
     ccc:	7f 91       	pop	r23
     cce:	6f 91       	pop	r22
     cd0:	5f 91       	pop	r21
     cd2:	4f 91       	pop	r20
     cd4:	3f 91       	pop	r19
     cd6:	2f 91       	pop	r18
     cd8:	0f 90       	pop	r0
     cda:	0f be       	out	0x3f, r0	; 63
     cdc:	0f 90       	pop	r0
     cde:	1f 90       	pop	r1
     ce0:	18 95       	reti

00000ce2 <SetHalfDataPort>:
	LCD_WRITE_STRING(Float_num);
}

void LCD_CLEAR_SCREEN(void)
{
	LCD_WRITE_COMMAND(1);
     ce2:	0f 93       	push	r16
     ce4:	1f 93       	push	r17
     ce6:	cf 93       	push	r28
     ce8:	df 93       	push	r29
     cea:	00 d0       	rcall	.+0      	; 0xcec <SetHalfDataPort+0xa>
     cec:	00 d0       	rcall	.+0      	; 0xcee <SetHalfDataPort+0xc>
     cee:	cd b7       	in	r28, 0x3d	; 61
     cf0:	de b7       	in	r29, 0x3e	; 62
     cf2:	08 2f       	mov	r16, r24
     cf4:	84 e0       	ldi	r24, 0x04	; 4
     cf6:	89 83       	std	Y+1, r24	; 0x01
     cf8:	85 e0       	ldi	r24, 0x05	; 5
     cfa:	8a 83       	std	Y+2, r24	; 0x02
     cfc:	86 e0       	ldi	r24, 0x06	; 6
     cfe:	8b 83       	std	Y+3, r24	; 0x03
     d00:	87 e0       	ldi	r24, 0x07	; 7
     d02:	8c 83       	std	Y+4, r24	; 0x04
     d04:	10 e0       	ldi	r17, 0x00	; 0
     d06:	14 c0       	rjmp	.+40     	; 0xd30 <SetHalfDataPort+0x4e>
     d08:	40 2f       	mov	r20, r16
     d0a:	50 e0       	ldi	r21, 0x00	; 0
     d0c:	01 2e       	mov	r0, r17
     d0e:	02 c0       	rjmp	.+4      	; 0xd14 <SetHalfDataPort+0x32>
     d10:	55 95       	asr	r21
     d12:	47 95       	ror	r20
     d14:	0a 94       	dec	r0
     d16:	e2 f7       	brpl	.-8      	; 0xd10 <SetHalfDataPort+0x2e>
     d18:	e1 e0       	ldi	r30, 0x01	; 1
     d1a:	f0 e0       	ldi	r31, 0x00	; 0
     d1c:	ec 0f       	add	r30, r28
     d1e:	fd 1f       	adc	r31, r29
     d20:	e1 0f       	add	r30, r17
     d22:	f1 1d       	adc	r31, r1
     d24:	60 81       	ld	r22, Z
     d26:	41 70       	andi	r20, 0x01	; 1
     d28:	82 e0       	ldi	r24, 0x02	; 2
     d2a:	0e 94 fc 04 	call	0x9f8	; 0x9f8 <GPIO_SETPIN_VALUE>
     d2e:	1f 5f       	subi	r17, 0xFF	; 255
     d30:	14 30       	cpi	r17, 0x04	; 4
     d32:	50 f3       	brcs	.-44     	; 0xd08 <SetHalfDataPort+0x26>
     d34:	0f 90       	pop	r0
     d36:	0f 90       	pop	r0
     d38:	0f 90       	pop	r0
     d3a:	0f 90       	pop	r0
     d3c:	df 91       	pop	r29
     d3e:	cf 91       	pop	r28
     d40:	1f 91       	pop	r17
     d42:	0f 91       	pop	r16
     d44:	08 95       	ret

00000d46 <SendEnablePulse>:
     d46:	41 e0       	ldi	r20, 0x01	; 1
     d48:	63 e0       	ldi	r22, 0x03	; 3
     d4a:	82 e0       	ldi	r24, 0x02	; 2
     d4c:	0e 94 fc 04 	call	0x9f8	; 0x9f8 <GPIO_SETPIN_VALUE>
     d50:	8f e3       	ldi	r24, 0x3F	; 63
     d52:	9f e1       	ldi	r25, 0x1F	; 31
     d54:	01 97       	sbiw	r24, 0x01	; 1
     d56:	f1 f7       	brne	.-4      	; 0xd54 <SendEnablePulse+0xe>
     d58:	00 c0       	rjmp	.+0      	; 0xd5a <SendEnablePulse+0x14>
     d5a:	00 00       	nop
     d5c:	40 e0       	ldi	r20, 0x00	; 0
     d5e:	63 e0       	ldi	r22, 0x03	; 3
     d60:	82 e0       	ldi	r24, 0x02	; 2
     d62:	0e 94 fc 04 	call	0x9f8	; 0x9f8 <GPIO_SETPIN_VALUE>
     d66:	08 95       	ret

00000d68 <LCD_WRITE_COMMAND>:
     d68:	cf 93       	push	r28
     d6a:	c8 2f       	mov	r28, r24
     d6c:	40 e0       	ldi	r20, 0x00	; 0
     d6e:	61 e0       	ldi	r22, 0x01	; 1
     d70:	82 e0       	ldi	r24, 0x02	; 2
     d72:	0e 94 fc 04 	call	0x9f8	; 0x9f8 <GPIO_SETPIN_VALUE>
     d76:	40 e0       	ldi	r20, 0x00	; 0
     d78:	62 e0       	ldi	r22, 0x02	; 2
     d7a:	82 e0       	ldi	r24, 0x02	; 2
     d7c:	0e 94 fc 04 	call	0x9f8	; 0x9f8 <GPIO_SETPIN_VALUE>
     d80:	8c 2f       	mov	r24, r28
     d82:	82 95       	swap	r24
     d84:	8f 70       	andi	r24, 0x0F	; 15
     d86:	0e 94 71 06 	call	0xce2	; 0xce2 <SetHalfDataPort>
     d8a:	0e 94 a3 06 	call	0xd46	; 0xd46 <SendEnablePulse>
     d8e:	8c 2f       	mov	r24, r28
     d90:	0e 94 71 06 	call	0xce2	; 0xce2 <SetHalfDataPort>
     d94:	0e 94 a3 06 	call	0xd46	; 0xd46 <SendEnablePulse>
     d98:	cf 91       	pop	r28
     d9a:	08 95       	ret

00000d9c <LCD_WRITE_CHAR>:
     d9c:	cf 93       	push	r28
     d9e:	c8 2f       	mov	r28, r24
     da0:	41 e0       	ldi	r20, 0x01	; 1
     da2:	61 e0       	ldi	r22, 0x01	; 1
     da4:	82 e0       	ldi	r24, 0x02	; 2
     da6:	0e 94 fc 04 	call	0x9f8	; 0x9f8 <GPIO_SETPIN_VALUE>
     daa:	40 e0       	ldi	r20, 0x00	; 0
     dac:	62 e0       	ldi	r22, 0x02	; 2
     dae:	82 e0       	ldi	r24, 0x02	; 2
     db0:	0e 94 fc 04 	call	0x9f8	; 0x9f8 <GPIO_SETPIN_VALUE>
     db4:	8c 2f       	mov	r24, r28
     db6:	82 95       	swap	r24
     db8:	8f 70       	andi	r24, 0x0F	; 15
     dba:	0e 94 71 06 	call	0xce2	; 0xce2 <SetHalfDataPort>
     dbe:	0e 94 a3 06 	call	0xd46	; 0xd46 <SendEnablePulse>
     dc2:	8c 2f       	mov	r24, r28
     dc4:	0e 94 71 06 	call	0xce2	; 0xce2 <SetHalfDataPort>
     dc8:	0e 94 a3 06 	call	0xd46	; 0xd46 <SendEnablePulse>
     dcc:	cf 91       	pop	r28
     dce:	08 95       	ret

00000dd0 <LCD_INIT>:
     dd0:	2f ef       	ldi	r18, 0xFF	; 255
     dd2:	83 ef       	ldi	r24, 0xF3	; 243
     dd4:	91 e0       	ldi	r25, 0x01	; 1
     dd6:	21 50       	subi	r18, 0x01	; 1
     dd8:	80 40       	sbci	r24, 0x00	; 0
     dda:	90 40       	sbci	r25, 0x00	; 0
     ddc:	e1 f7       	brne	.-8      	; 0xdd6 <LCD_INIT+0x6>
     dde:	00 c0       	rjmp	.+0      	; 0xde0 <LCD_INIT+0x10>
     de0:	00 00       	nop
     de2:	41 e0       	ldi	r20, 0x01	; 1
     de4:	61 e0       	ldi	r22, 0x01	; 1
     de6:	82 e0       	ldi	r24, 0x02	; 2
     de8:	0e 94 7d 04 	call	0x8fa	; 0x8fa <GPIO_SETPIN_DIRECTION>
     dec:	41 e0       	ldi	r20, 0x01	; 1
     dee:	62 e0       	ldi	r22, 0x02	; 2
     df0:	82 e0       	ldi	r24, 0x02	; 2
     df2:	0e 94 7d 04 	call	0x8fa	; 0x8fa <GPIO_SETPIN_DIRECTION>
     df6:	41 e0       	ldi	r20, 0x01	; 1
     df8:	63 e0       	ldi	r22, 0x03	; 3
     dfa:	82 e0       	ldi	r24, 0x02	; 2
     dfc:	0e 94 7d 04 	call	0x8fa	; 0x8fa <GPIO_SETPIN_DIRECTION>
     e00:	41 e0       	ldi	r20, 0x01	; 1
     e02:	64 e0       	ldi	r22, 0x04	; 4
     e04:	82 e0       	ldi	r24, 0x02	; 2
     e06:	0e 94 7d 04 	call	0x8fa	; 0x8fa <GPIO_SETPIN_DIRECTION>
     e0a:	41 e0       	ldi	r20, 0x01	; 1
     e0c:	65 e0       	ldi	r22, 0x05	; 5
     e0e:	82 e0       	ldi	r24, 0x02	; 2
     e10:	0e 94 7d 04 	call	0x8fa	; 0x8fa <GPIO_SETPIN_DIRECTION>
     e14:	41 e0       	ldi	r20, 0x01	; 1
     e16:	66 e0       	ldi	r22, 0x06	; 6
     e18:	82 e0       	ldi	r24, 0x02	; 2
     e1a:	0e 94 7d 04 	call	0x8fa	; 0x8fa <GPIO_SETPIN_DIRECTION>
     e1e:	41 e0       	ldi	r20, 0x01	; 1
     e20:	67 e0       	ldi	r22, 0x07	; 7
     e22:	82 e0       	ldi	r24, 0x02	; 2
     e24:	0e 94 7d 04 	call	0x8fa	; 0x8fa <GPIO_SETPIN_DIRECTION>
     e28:	82 e0       	ldi	r24, 0x02	; 2
     e2a:	0e 94 71 06 	call	0xce2	; 0xce2 <SetHalfDataPort>
     e2e:	0e 94 a3 06 	call	0xd46	; 0xd46 <SendEnablePulse>
     e32:	82 e0       	ldi	r24, 0x02	; 2
     e34:	0e 94 71 06 	call	0xce2	; 0xce2 <SetHalfDataPort>
     e38:	0e 94 a3 06 	call	0xd46	; 0xd46 <SendEnablePulse>
     e3c:	88 e0       	ldi	r24, 0x08	; 8
     e3e:	0e 94 71 06 	call	0xce2	; 0xce2 <SetHalfDataPort>
     e42:	0e 94 a3 06 	call	0xd46	; 0xd46 <SendEnablePulse>
     e46:	8c e0       	ldi	r24, 0x0C	; 12
     e48:	0e 94 b4 06 	call	0xd68	; 0xd68 <LCD_WRITE_COMMAND>
     e4c:	81 e0       	ldi	r24, 0x01	; 1
     e4e:	0e 94 b4 06 	call	0xd68	; 0xd68 <LCD_WRITE_COMMAND>
     e52:	08 95       	ret

00000e54 <LCD_WRITE_STRING>:
     e54:	0f 93       	push	r16
     e56:	1f 93       	push	r17
     e58:	cf 93       	push	r28
     e5a:	00 97       	sbiw	r24, 0x00	; 0
     e5c:	69 f0       	breq	.+26     	; 0xe78 <LCD_WRITE_STRING+0x24>
     e5e:	8c 01       	movw	r16, r24
     e60:	c0 e0       	ldi	r28, 0x00	; 0
     e62:	03 c0       	rjmp	.+6      	; 0xe6a <LCD_WRITE_STRING+0x16>
     e64:	0e 94 ce 06 	call	0xd9c	; 0xd9c <LCD_WRITE_CHAR>
     e68:	cf 5f       	subi	r28, 0xFF	; 255
     e6a:	f8 01       	movw	r30, r16
     e6c:	ec 0f       	add	r30, r28
     e6e:	f1 1d       	adc	r31, r1
     e70:	80 81       	ld	r24, Z
     e72:	81 11       	cpse	r24, r1
     e74:	f7 cf       	rjmp	.-18     	; 0xe64 <LCD_WRITE_STRING+0x10>
     e76:	01 c0       	rjmp	.+2      	; 0xe7a <LCD_WRITE_STRING+0x26>
     e78:	82 e0       	ldi	r24, 0x02	; 2
     e7a:	cf 91       	pop	r28
     e7c:	1f 91       	pop	r17
     e7e:	0f 91       	pop	r16
     e80:	08 95       	ret

00000e82 <LCD_WRITE_NUMBER>:
     e82:	cf 93       	push	r28
     e84:	df 93       	push	r29
     e86:	cd b7       	in	r28, 0x3d	; 61
     e88:	de b7       	in	r29, 0x3e	; 62
     e8a:	60 97       	sbiw	r28, 0x10	; 16
     e8c:	0f b6       	in	r0, 0x3f	; 63
     e8e:	f8 94       	cli
     e90:	de bf       	out	0x3e, r29	; 62
     e92:	0f be       	out	0x3f, r0	; 63
     e94:	cd bf       	out	0x3d, r28	; 61
     e96:	dc 01       	movw	r26, r24
     e98:	cb 01       	movw	r24, r22
     e9a:	40 e1       	ldi	r20, 0x10	; 16
     e9c:	be 01       	movw	r22, r28
     e9e:	6f 5f       	subi	r22, 0xFF	; 255
     ea0:	7f 4f       	sbci	r23, 0xFF	; 255
     ea2:	0e 94 66 08 	call	0x10cc	; 0x10cc <__itoa_ncheck>
     ea6:	ce 01       	movw	r24, r28
     ea8:	01 96       	adiw	r24, 0x01	; 1
     eaa:	0e 94 2a 07 	call	0xe54	; 0xe54 <LCD_WRITE_STRING>
     eae:	60 96       	adiw	r28, 0x10	; 16
     eb0:	0f b6       	in	r0, 0x3f	; 63
     eb2:	f8 94       	cli
     eb4:	de bf       	out	0x3e, r29	; 62
     eb6:	0f be       	out	0x3f, r0	; 63
     eb8:	cd bf       	out	0x3d, r28	; 61
     eba:	df 91       	pop	r29
     ebc:	cf 91       	pop	r28
     ebe:	08 95       	ret

00000ec0 <LCD_SET_CURSOR>:

void LCD_SET_CURSOR(uint8 row, uint8 column)
{
	uint8 Loc_Row0 = 0x80;
	uint8 Loc_Row1 = 0xC0;
	switch(row)
     ec0:	88 23       	and	r24, r24
     ec2:	19 f0       	breq	.+6      	; 0xeca <LCD_SET_CURSOR+0xa>
     ec4:	81 30       	cpi	r24, 0x01	; 1
     ec6:	31 f0       	breq	.+12     	; 0xed4 <LCD_SET_CURSOR+0x14>
     ec8:	0a c0       	rjmp	.+20     	; 0xede <LCD_SET_CURSOR+0x1e>
	{
		case 0:
		Loc_Row0 += column;
		LCD_WRITE_COMMAND(Loc_Row0);
     eca:	80 e8       	ldi	r24, 0x80	; 128
     ecc:	86 0f       	add	r24, r22
     ece:	0e 94 b4 06 	call	0xd68	; 0xd68 <LCD_WRITE_COMMAND>
		break;
     ed2:	08 95       	ret
		case 1:
		Loc_Row1 += column;
		LCD_WRITE_COMMAND(Loc_Row1);
     ed4:	80 ec       	ldi	r24, 0xC0	; 192
     ed6:	86 0f       	add	r24, r22
     ed8:	0e 94 b4 06 	call	0xd68	; 0xd68 <LCD_WRITE_COMMAND>
		break;
     edc:	08 95       	ret
		default:
		Loc_Row0 += column;
		LCD_WRITE_COMMAND(Loc_Row0);
     ede:	80 e8       	ldi	r24, 0x80	; 128
     ee0:	86 0f       	add	r24, r22
     ee2:	0e 94 b4 06 	call	0xd68	; 0xd68 <LCD_WRITE_COMMAND>
     ee6:	08 95       	ret

00000ee8 <LED_INIT>:
#include "LED_Private.h"

ERROR_STATE_t LED_INIT(const LED_CONFIG_t *led)
{
	ERROR_STATE_t ErrorState=F_NOK;
 if (NULL == led)
     ee8:	00 97       	sbiw	r24, 0x00	; 0
     eea:	41 f0       	breq	.+16     	; 0xefc <LED_INIT+0x14>
     eec:	fc 01       	movw	r30, r24
 {
	ErrorState=F_NULL_POINTER; 
 }
 else
 {
	 GPIO_SETPIN_DIRECTION(led->LedPort,led->LedPin,GPIO_OUTPUT);
     eee:	41 e0       	ldi	r20, 0x01	; 1
     ef0:	61 81       	ldd	r22, Z+1	; 0x01
     ef2:	80 81       	ld	r24, Z
     ef4:	0e 94 7d 04 	call	0x8fa	; 0x8fa <GPIO_SETPIN_DIRECTION>
	 ErrorState=F_OK;
     ef8:	80 e0       	ldi	r24, 0x00	; 0
     efa:	08 95       	ret
ERROR_STATE_t LED_INIT(const LED_CONFIG_t *led)
{
	ERROR_STATE_t ErrorState=F_NOK;
 if (NULL == led)
 {
	ErrorState=F_NULL_POINTER; 
     efc:	82 e0       	ldi	r24, 0x02	; 2
 {
	 GPIO_SETPIN_DIRECTION(led->LedPort,led->LedPin,GPIO_OUTPUT);
	 ErrorState=F_OK;
 }
 return ErrorState;
}
     efe:	08 95       	ret

00000f00 <LED_ON>:
ERROR_STATE_t LED_ON(const LED_CONFIG_t *led)
{
	ERROR_STATE_t ErrorState=F_NOK;
	if (NULL == led)
     f00:	00 97       	sbiw	r24, 0x00	; 0
     f02:	a9 f0       	breq	.+42     	; 0xf2e <LED_ON+0x2e>
     f04:	fc 01       	movw	r30, r24
	{
		ErrorState=F_NULL_POINTER;
	}
	else
	{
		switch(led->LedConnection)
     f06:	82 81       	ldd	r24, Z+2	; 0x02
     f08:	88 23       	and	r24, r24
     f0a:	19 f0       	breq	.+6      	; 0xf12 <LED_ON+0x12>
     f0c:	81 30       	cpi	r24, 0x01	; 1
     f0e:	41 f0       	breq	.+16     	; 0xf20 <LED_ON+0x20>
     f10:	10 c0       	rjmp	.+32     	; 0xf32 <LED_ON+0x32>
		{
			case SINK_CONNECTION:
			GPIO_SETPIN_VALUE(led->LedPort,led->LedPin,GPIO_LOW);
     f12:	40 e0       	ldi	r20, 0x00	; 0
     f14:	61 81       	ldd	r22, Z+1	; 0x01
     f16:	80 81       	ld	r24, Z
     f18:	0e 94 fc 04 	call	0x9f8	; 0x9f8 <GPIO_SETPIN_VALUE>
			ErrorState=F_OK;
     f1c:	80 e0       	ldi	r24, 0x00	; 0
			break;
     f1e:	08 95       	ret
			case SOURCE_CONNECTION:
			GPIO_SETPIN_VALUE(led->LedPort,led->LedPin,GPIO_HIGH);
     f20:	41 e0       	ldi	r20, 0x01	; 1
     f22:	61 81       	ldd	r22, Z+1	; 0x01
     f24:	80 81       	ld	r24, Z
     f26:	0e 94 fc 04 	call	0x9f8	; 0x9f8 <GPIO_SETPIN_VALUE>
			ErrorState=F_OK;
     f2a:	80 e0       	ldi	r24, 0x00	; 0
			break;
     f2c:	08 95       	ret
ERROR_STATE_t LED_ON(const LED_CONFIG_t *led)
{
	ERROR_STATE_t ErrorState=F_NOK;
	if (NULL == led)
	{
		ErrorState=F_NULL_POINTER;
     f2e:	82 e0       	ldi	r24, 0x02	; 2
     f30:	08 95       	ret
			case SOURCE_CONNECTION:
			GPIO_SETPIN_VALUE(led->LedPort,led->LedPin,GPIO_HIGH);
			ErrorState=F_OK;
			break;
			default:
			ErrorState=F_NOK;
     f32:	81 e0       	ldi	r24, 0x01	; 1
			break;
		}
		
	}
	return ErrorState;
}
     f34:	08 95       	ret

00000f36 <LED_OFF>:
ERROR_STATE_t LED_OFF(const LED_CONFIG_t *led)
{
	ERROR_STATE_t ErrorState=F_NOK;
	if (NULL == led)
     f36:	00 97       	sbiw	r24, 0x00	; 0
     f38:	a9 f0       	breq	.+42     	; 0xf64 <LED_OFF+0x2e>
     f3a:	fc 01       	movw	r30, r24
	{
		ErrorState=F_NULL_POINTER;
	}
	else
	{
		switch(led->LedConnection)
     f3c:	82 81       	ldd	r24, Z+2	; 0x02
     f3e:	88 23       	and	r24, r24
     f40:	19 f0       	breq	.+6      	; 0xf48 <LED_OFF+0x12>
     f42:	81 30       	cpi	r24, 0x01	; 1
     f44:	41 f0       	breq	.+16     	; 0xf56 <LED_OFF+0x20>
     f46:	10 c0       	rjmp	.+32     	; 0xf68 <LED_OFF+0x32>
		{
			case SINK_CONNECTION:
			GPIO_SETPIN_VALUE(led->LedPort,led->LedPin,GPIO_HIGH);
     f48:	41 e0       	ldi	r20, 0x01	; 1
     f4a:	61 81       	ldd	r22, Z+1	; 0x01
     f4c:	80 81       	ld	r24, Z
     f4e:	0e 94 fc 04 	call	0x9f8	; 0x9f8 <GPIO_SETPIN_VALUE>
			ErrorState=F_OK;
     f52:	80 e0       	ldi	r24, 0x00	; 0
			break;
     f54:	08 95       	ret
			case SOURCE_CONNECTION:
			GPIO_SETPIN_VALUE(led->LedPort,led->LedPin,GPIO_LOW);
     f56:	40 e0       	ldi	r20, 0x00	; 0
     f58:	61 81       	ldd	r22, Z+1	; 0x01
     f5a:	80 81       	ld	r24, Z
     f5c:	0e 94 fc 04 	call	0x9f8	; 0x9f8 <GPIO_SETPIN_VALUE>
			ErrorState=F_OK;
     f60:	80 e0       	ldi	r24, 0x00	; 0
			break;
     f62:	08 95       	ret
ERROR_STATE_t LED_OFF(const LED_CONFIG_t *led)
{
	ERROR_STATE_t ErrorState=F_NOK;
	if (NULL == led)
	{
		ErrorState=F_NULL_POINTER;
     f64:	82 e0       	ldi	r24, 0x02	; 2
     f66:	08 95       	ret
			case SOURCE_CONNECTION:
			GPIO_SETPIN_VALUE(led->LedPort,led->LedPin,GPIO_LOW);
			ErrorState=F_OK;
			break;
			default:
			ErrorState=F_NOK;
     f68:	81 e0       	ldi	r24, 0x01	; 1
			break;
		}
		
	}
	return ErrorState;
}
     f6a:	08 95       	ret

00000f6c <SERVO_INIT>:
 */ 
#include "SERVO_Private.h"

void SERVO_INIT(const SERVO_CONFIG_t *servo)
{ 
	GPIO_SETPIN_DIRECTION(servo->servoPort,servo->servoPin,GPIO_OUTPUT);
     f6c:	41 e0       	ldi	r20, 0x01	; 1
     f6e:	fc 01       	movw	r30, r24
     f70:	61 81       	ldd	r22, Z+1	; 0x01
     f72:	80 81       	ld	r24, Z
     f74:	0e 94 7d 04 	call	0x8fa	; 0x8fa <GPIO_SETPIN_DIRECTION>
     f78:	08 95       	ret

00000f7a <ULTRASONIC_INIT>:
uint16 a,b,high,distance;


void ULTRASONIC_INIT(const ULTRASONIC_CONFIG_t *ultrasonic)
{
GPIO_SETPIN_DIRECTION(ultrasonic->ultrasonic_Port,ultrasonic->ultrasonic_trig_Pin,GPIO_OUTPUT);
     f7a:	41 e0       	ldi	r20, 0x01	; 1
     f7c:	fc 01       	movw	r30, r24
     f7e:	61 81       	ldd	r22, Z+1	; 0x01
     f80:	80 81       	ld	r24, Z
     f82:	0e 94 7d 04 	call	0x8fa	; 0x8fa <GPIO_SETPIN_DIRECTION>
     f86:	08 95       	ret

00000f88 <ULTRASONIC_START_MEASURE>:

}
uint16 ULTRASONIC_START_MEASURE(const ULTRASONIC_CONFIG_t *ultrasonic)
{
     f88:	cf 93       	push	r28
     f8a:	df 93       	push	r29
     f8c:	ec 01       	movw	r28, r24
 TCCR1A = 0;
     f8e:	1f bc       	out	0x2f, r1	; 47
 // Clear Input Capture flag
 SET_BIT(TIFR,5);
     f90:	88 b7       	in	r24, 0x38	; 56
     f92:	80 62       	ori	r24, 0x20	; 32
     f94:	88 bf       	out	0x38, r24	; 56
 // Generate pulse to enable ultrasonic sensor
 GPIO_SETPIN_VALUE(ultrasonic->ultrasonic_Port,ultrasonic->ultrasonic_trig_Pin,GPIO_HIGH);
     f96:	41 e0       	ldi	r20, 0x01	; 1
     f98:	69 81       	ldd	r22, Y+1	; 0x01
     f9a:	88 81       	ld	r24, Y
     f9c:	0e 94 fc 04 	call	0x9f8	; 0x9f8 <GPIO_SETPIN_VALUE>
	#else
		//round up by default
		__ticks_dc = (uint32_t)(ceil(fabs(__tmp)));
	#endif

	__builtin_avr_delay_cycles(__ticks_dc);
     fa0:	8a e6       	ldi	r24, 0x6A	; 106
     fa2:	8a 95       	dec	r24
     fa4:	f1 f7       	brne	.-4      	; 0xfa2 <ULTRASONIC_START_MEASURE+0x1a>
     fa6:	00 c0       	rjmp	.+0      	; 0xfa8 <ULTRASONIC_START_MEASURE+0x20>
 _delay_us(20);
 GPIO_SETPIN_VALUE(ultrasonic->ultrasonic_Port,ultrasonic->ultrasonic_trig_Pin,GPIO_LOW);
     fa8:	40 e0       	ldi	r20, 0x00	; 0
     faa:	69 81       	ldd	r22, Y+1	; 0x01
     fac:	88 81       	ld	r24, Y
     fae:	0e 94 fc 04 	call	0x9f8	; 0x9f8 <GPIO_SETPIN_VALUE>
 // Configure Timer1 for rising edge detection, no prescaler
 TCCR1B = 0xc1;
     fb2:	81 ec       	ldi	r24, 0xC1	; 193
     fb4:	8e bd       	out	0x2e, r24	; 46
  while ((TIFR&(1<<5)) == 0);
     fb6:	08 b6       	in	r0, 0x38	; 56
     fb8:	05 fe       	sbrs	r0, 5
     fba:	fd cf       	rjmp	.-6      	; 0xfb6 <ULTRASONIC_START_MEASURE+0x2e>
  a = ICR1;  		/* Take value of capture register */
     fbc:	86 b5       	in	r24, 0x26	; 38
     fbe:	97 b5       	in	r25, 0x27	; 39
     fc0:	90 93 dd 00 	sts	0x00DD, r25	; 0x8000dd <a+0x1>
     fc4:	80 93 dc 00 	sts	0x00DC, r24	; 0x8000dc <a>
  TIFR = (1<<5);  	/* Clear ICF flag */
     fc8:	80 e2       	ldi	r24, 0x20	; 32
     fca:	88 bf       	out	0x38, r24	; 56
  TCCR1B = 0x81;  	/* Falling edge, no prescaler ,noise canceler*/
     fcc:	81 e8       	ldi	r24, 0x81	; 129
     fce:	8e bd       	out	0x2e, r24	; 46
  while ((TIFR&(1<<5)) == 0);
     fd0:	08 b6       	in	r0, 0x38	; 56
     fd2:	05 fe       	sbrs	r0, 5
     fd4:	fd cf       	rjmp	.-6      	; 0xfd0 <ULTRASONIC_START_MEASURE+0x48>
  b = ICR1;  		/* Take value of capture register */
     fd6:	86 b5       	in	r24, 0x26	; 38
     fd8:	97 b5       	in	r25, 0x27	; 39
     fda:	90 93 d7 00 	sts	0x00D7, r25	; 0x8000d7 <b+0x1>
     fde:	80 93 d6 00 	sts	0x00D6, r24	; 0x8000d6 <b>
  TIFR = (1<<5);  	/* Clear ICF flag */
     fe2:	80 e2       	ldi	r24, 0x20	; 32
     fe4:	88 bf       	out	0x38, r24	; 56
  TCNT1=0;
     fe6:	1d bc       	out	0x2d, r1	; 45
     fe8:	1c bc       	out	0x2c, r1	; 44
  TCCR1B = 0;  		/* Stop the timer */
     fea:	1e bc       	out	0x2e, r1	; 46
  high=b-a;
     fec:	20 91 d6 00 	lds	r18, 0x00D6	; 0x8000d6 <b>
     ff0:	30 91 d7 00 	lds	r19, 0x00D7	; 0x8000d7 <b+0x1>
     ff4:	80 91 dc 00 	lds	r24, 0x00DC	; 0x8000dc <a>
     ff8:	90 91 dd 00 	lds	r25, 0x00DD	; 0x8000dd <a+0x1>
     ffc:	28 1b       	sub	r18, r24
     ffe:	39 0b       	sbc	r19, r25
    1000:	30 93 db 00 	sts	0x00DB, r19	; 0x8000db <high+0x1>
    1004:	20 93 da 00 	sts	0x00DA, r18	; 0x8000da <high>
  distance=((high*34600)/(F_CPU*2)) ;
    1008:	a8 e2       	ldi	r26, 0x28	; 40
    100a:	b7 e8       	ldi	r27, 0x87	; 135
    100c:	0e 94 35 08 	call	0x106a	; 0x106a <__umulhisi3>
    1010:	20 e0       	ldi	r18, 0x00	; 0
    1012:	38 e4       	ldi	r19, 0x48	; 72
    1014:	48 ee       	ldi	r20, 0xE8	; 232
    1016:	51 e0       	ldi	r21, 0x01	; 1
    1018:	0e 94 16 08 	call	0x102c	; 0x102c <__divmodsi4>
    101c:	30 93 d9 00 	sts	0x00D9, r19	; 0x8000d9 <distance+0x1>
    1020:	20 93 d8 00 	sts	0x00D8, r18	; 0x8000d8 <distance>
 return distance;
}
    1024:	c9 01       	movw	r24, r18
    1026:	df 91       	pop	r29
    1028:	cf 91       	pop	r28
    102a:	08 95       	ret

0000102c <__divmodsi4>:
    102c:	05 2e       	mov	r0, r21
    102e:	97 fb       	bst	r25, 7
    1030:	1e f4       	brtc	.+6      	; 0x1038 <__divmodsi4+0xc>
    1032:	00 94       	com	r0
    1034:	0e 94 2d 08 	call	0x105a	; 0x105a <__negsi2>
    1038:	57 fd       	sbrc	r21, 7
    103a:	07 d0       	rcall	.+14     	; 0x104a <__divmodsi4_neg2>
    103c:	0e 94 44 08 	call	0x1088	; 0x1088 <__udivmodsi4>
    1040:	07 fc       	sbrc	r0, 7
    1042:	03 d0       	rcall	.+6      	; 0x104a <__divmodsi4_neg2>
    1044:	4e f4       	brtc	.+18     	; 0x1058 <__divmodsi4_exit>
    1046:	0c 94 2d 08 	jmp	0x105a	; 0x105a <__negsi2>

0000104a <__divmodsi4_neg2>:
    104a:	50 95       	com	r21
    104c:	40 95       	com	r20
    104e:	30 95       	com	r19
    1050:	21 95       	neg	r18
    1052:	3f 4f       	sbci	r19, 0xFF	; 255
    1054:	4f 4f       	sbci	r20, 0xFF	; 255
    1056:	5f 4f       	sbci	r21, 0xFF	; 255

00001058 <__divmodsi4_exit>:
    1058:	08 95       	ret

0000105a <__negsi2>:
    105a:	90 95       	com	r25
    105c:	80 95       	com	r24
    105e:	70 95       	com	r23
    1060:	61 95       	neg	r22
    1062:	7f 4f       	sbci	r23, 0xFF	; 255
    1064:	8f 4f       	sbci	r24, 0xFF	; 255
    1066:	9f 4f       	sbci	r25, 0xFF	; 255
    1068:	08 95       	ret

0000106a <__umulhisi3>:
    106a:	a2 9f       	mul	r26, r18
    106c:	b0 01       	movw	r22, r0
    106e:	b3 9f       	mul	r27, r19
    1070:	c0 01       	movw	r24, r0
    1072:	a3 9f       	mul	r26, r19
    1074:	70 0d       	add	r23, r0
    1076:	81 1d       	adc	r24, r1
    1078:	11 24       	eor	r1, r1
    107a:	91 1d       	adc	r25, r1
    107c:	b2 9f       	mul	r27, r18
    107e:	70 0d       	add	r23, r0
    1080:	81 1d       	adc	r24, r1
    1082:	11 24       	eor	r1, r1
    1084:	91 1d       	adc	r25, r1
    1086:	08 95       	ret

00001088 <__udivmodsi4>:
    1088:	a1 e2       	ldi	r26, 0x21	; 33
    108a:	1a 2e       	mov	r1, r26
    108c:	aa 1b       	sub	r26, r26
    108e:	bb 1b       	sub	r27, r27
    1090:	fd 01       	movw	r30, r26
    1092:	0d c0       	rjmp	.+26     	; 0x10ae <__udivmodsi4_ep>

00001094 <__udivmodsi4_loop>:
    1094:	aa 1f       	adc	r26, r26
    1096:	bb 1f       	adc	r27, r27
    1098:	ee 1f       	adc	r30, r30
    109a:	ff 1f       	adc	r31, r31
    109c:	a2 17       	cp	r26, r18
    109e:	b3 07       	cpc	r27, r19
    10a0:	e4 07       	cpc	r30, r20
    10a2:	f5 07       	cpc	r31, r21
    10a4:	20 f0       	brcs	.+8      	; 0x10ae <__udivmodsi4_ep>
    10a6:	a2 1b       	sub	r26, r18
    10a8:	b3 0b       	sbc	r27, r19
    10aa:	e4 0b       	sbc	r30, r20
    10ac:	f5 0b       	sbc	r31, r21

000010ae <__udivmodsi4_ep>:
    10ae:	66 1f       	adc	r22, r22
    10b0:	77 1f       	adc	r23, r23
    10b2:	88 1f       	adc	r24, r24
    10b4:	99 1f       	adc	r25, r25
    10b6:	1a 94       	dec	r1
    10b8:	69 f7       	brne	.-38     	; 0x1094 <__udivmodsi4_loop>
    10ba:	60 95       	com	r22
    10bc:	70 95       	com	r23
    10be:	80 95       	com	r24
    10c0:	90 95       	com	r25
    10c2:	9b 01       	movw	r18, r22
    10c4:	ac 01       	movw	r20, r24
    10c6:	bd 01       	movw	r22, r26
    10c8:	cf 01       	movw	r24, r30
    10ca:	08 95       	ret

000010cc <__itoa_ncheck>:
    10cc:	bb 27       	eor	r27, r27
    10ce:	4a 30       	cpi	r20, 0x0A	; 10
    10d0:	31 f4       	brne	.+12     	; 0x10de <__itoa_ncheck+0x12>
    10d2:	99 23       	and	r25, r25
    10d4:	22 f4       	brpl	.+8      	; 0x10de <__itoa_ncheck+0x12>
    10d6:	bd e2       	ldi	r27, 0x2D	; 45
    10d8:	90 95       	com	r25
    10da:	81 95       	neg	r24
    10dc:	9f 4f       	sbci	r25, 0xFF	; 255
    10de:	0c 94 72 08 	jmp	0x10e4	; 0x10e4 <__utoa_common>

000010e2 <__utoa_ncheck>:
    10e2:	bb 27       	eor	r27, r27

000010e4 <__utoa_common>:
    10e4:	fb 01       	movw	r30, r22
    10e6:	55 27       	eor	r21, r21
    10e8:	aa 27       	eor	r26, r26
    10ea:	88 0f       	add	r24, r24
    10ec:	99 1f       	adc	r25, r25
    10ee:	aa 1f       	adc	r26, r26
    10f0:	a4 17       	cp	r26, r20
    10f2:	10 f0       	brcs	.+4      	; 0x10f8 <__utoa_common+0x14>
    10f4:	a4 1b       	sub	r26, r20
    10f6:	83 95       	inc	r24
    10f8:	50 51       	subi	r21, 0x10	; 16
    10fa:	b9 f7       	brne	.-18     	; 0x10ea <__utoa_common+0x6>
    10fc:	a0 5d       	subi	r26, 0xD0	; 208
    10fe:	aa 33       	cpi	r26, 0x3A	; 58
    1100:	08 f0       	brcs	.+2      	; 0x1104 <__utoa_common+0x20>
    1102:	a9 5d       	subi	r26, 0xD9	; 217
    1104:	a1 93       	st	Z+, r26
    1106:	00 97       	sbiw	r24, 0x00	; 0
    1108:	79 f7       	brne	.-34     	; 0x10e8 <__utoa_common+0x4>
    110a:	b1 11       	cpse	r27, r1
    110c:	b1 93       	st	Z+, r27
    110e:	11 92       	st	Z+, r1
    1110:	cb 01       	movw	r24, r22
    1112:	0c 94 8b 08 	jmp	0x1116	; 0x1116 <strrev>

00001116 <strrev>:
    1116:	dc 01       	movw	r26, r24
    1118:	fc 01       	movw	r30, r24
    111a:	67 2f       	mov	r22, r23
    111c:	71 91       	ld	r23, Z+
    111e:	77 23       	and	r23, r23
    1120:	e1 f7       	brne	.-8      	; 0x111a <strrev+0x4>
    1122:	32 97       	sbiw	r30, 0x02	; 2
    1124:	04 c0       	rjmp	.+8      	; 0x112e <strrev+0x18>
    1126:	7c 91       	ld	r23, X
    1128:	6d 93       	st	X+, r22
    112a:	70 83       	st	Z, r23
    112c:	62 91       	ld	r22, -Z
    112e:	ae 17       	cp	r26, r30
    1130:	bf 07       	cpc	r27, r31
    1132:	c8 f3       	brcs	.-14     	; 0x1126 <strrev+0x10>
    1134:	08 95       	ret

00001136 <_exit>:
    1136:	f8 94       	cli

00001138 <__stop_program>:
    1138:	ff cf       	rjmp	.-2      	; 0x1138 <__stop_program>
